TI ARM Assembler PC v5.2.5 Tue May 03 10:42:10 2016

Tools Copyright (c) 1996-2015 Texas Instruments Incorporated
Task_Temp.asm                                                        PAGE    1

       1                    ;******************************************************************************
       2                    ;* TI ARM C/C++ Codegen                                             PC v5.2.5 *
       3                    ;* Date/Time created: Tue May 03 10:42:09 2016                                *
       4                    ;******************************************************************************
       5                            .compiler_opts --abi=eabi --arm_vmrs_si_workaround=off --code_state=16 --diag_wrap=off --disab
       6 00000000                   .thumb
       7                    
       8                    $C$DW$CU        .dwtag  DW_TAG_compile_unit
       9                            .dwattr $C$DW$CU, DW_AT_name("../Tasks/Task_Temp.c")
      10                            .dwattr $C$DW$CU, DW_AT_producer("TI TI ARM C/C++ Codegen PC v5.2.5 Copyright (c) 1996-2015 Te
      11                            .dwattr $C$DW$CU, DW_AT_TI_version(0x01)
      12                            .dwattr $C$DW$CU, DW_AT_comp_dir("C:\Users\trilu\workspace_eecs\FreeRTOS823_3_TM4C1294_Base_Te
      13                    
      14                    $C$DW$1 .dwtag  DW_TAG_subprogram, DW_AT_name("UARTprintf")
      15                            .dwattr $C$DW$1, DW_AT_TI_symbol_name("UARTprintf")
      16                            .dwattr $C$DW$1, DW_AT_declaration
      17                            .dwattr $C$DW$1, DW_AT_external
      18                            .dwattr $C$DW$1, DW_AT_decl_file("C:/Users/trilu/workspace_eecs/FreeRTOS823_3_TM4C1294_Base_Te
      19                            .dwattr $C$DW$1, DW_AT_decl_line(0x41)
      20                            .dwattr $C$DW$1, DW_AT_decl_column(0x0d)
      21                    $C$DW$2 .dwtag  DW_TAG_formal_parameter
      22                            .dwattr $C$DW$2, DW_AT_type(*$C$DW$T$42)
      23                    $C$DW$3 .dwtag  DW_TAG_unspecified_parameters
      24                            .dwendtag $C$DW$1
      25                    
      26                    
      27                    $C$DW$4 .dwtag  DW_TAG_subprogram, DW_AT_name("vTaskDelay")
      28                            .dwattr $C$DW$4, DW_AT_TI_symbol_name("vTaskDelay")
      29                            .dwattr $C$DW$4, DW_AT_declaration
      30                            .dwattr $C$DW$4, DW_AT_external
      31                            .dwattr $C$DW$4, DW_AT_decl_file("C:/Users/trilu/Downloads/TI_ARM_Tiva_Projects_EECS_690_Sp16/
      32                            .dwattr $C$DW$4, DW_AT_decl_line(0x22b)
      33                            .dwattr $C$DW$4, DW_AT_decl_column(0x06)
      34                    $C$DW$5 .dwtag  DW_TAG_formal_parameter
      35                            .dwattr $C$DW$5, DW_AT_type(*$C$DW$T$69)
      36                            .dwendtag $C$DW$4
      37                    
      38                    
      39                    $C$DW$6 .dwtag  DW_TAG_subprogram, DW_AT_name("xQueueGenericSend")
      40                            .dwattr $C$DW$6, DW_AT_TI_symbol_name("xQueueGenericSend")
      41                            .dwattr $C$DW$6, DW_AT_type(*$C$DW$T$55)
      42                            .dwattr $C$DW$6, DW_AT_declaration
      43                            .dwattr $C$DW$6, DW_AT_external
      44                            .dwattr $C$DW$6, DW_AT_decl_file("C:/Users/trilu/Downloads/TI_ARM_Tiva_Projects_EECS_690_Sp16/
      45                            .dwattr $C$DW$6, DW_AT_decl_line(0x250)
      46                            .dwattr $C$DW$6, DW_AT_decl_column(0x0c)
      47                    $C$DW$7 .dwtag  DW_TAG_formal_parameter
      48                            .dwattr $C$DW$7, DW_AT_type(*$C$DW$T$63)
      49                    $C$DW$8 .dwtag  DW_TAG_formal_parameter
      50                            .dwattr $C$DW$8, DW_AT_type(*$C$DW$T$74)
      51                    $C$DW$9 .dwtag  DW_TAG_formal_parameter
      52                            .dwattr $C$DW$9, DW_AT_type(*$C$DW$T$32)
      53                    $C$DW$10        .dwtag  DW_TAG_formal_parameter
      54                            .dwattr $C$DW$10, DW_AT_type(*$C$DW$T$87)
      55                            .dwendtag $C$DW$6
TI ARM Assembler PC v5.2.5 Tue May 03 10:42:10 2016

Tools Copyright (c) 1996-2015 Texas Instruments Incorporated
Task_Temp.asm                                                        PAGE    2

      56                    
      57                    
      58                    $C$DW$11        .dwtag  DW_TAG_subprogram, DW_AT_name("xQueueGenericReceive")
      59                            .dwattr $C$DW$11, DW_AT_TI_symbol_name("xQueueGenericReceive")
      60                            .dwattr $C$DW$11, DW_AT_type(*$C$DW$T$55)
      61                            .dwattr $C$DW$11, DW_AT_declaration
      62                            .dwattr $C$DW$11, DW_AT_external
      63                            .dwattr $C$DW$11, DW_AT_decl_file("C:/Users/trilu/Downloads/TI_ARM_Tiva_Projects_EECS_690_Sp16
      64                            .dwattr $C$DW$11, DW_AT_decl_line(0x391)
      65                            .dwattr $C$DW$11, DW_AT_decl_column(0x0c)
      66                    $C$DW$12        .dwtag  DW_TAG_formal_parameter
      67                            .dwattr $C$DW$12, DW_AT_type(*$C$DW$T$63)
      68                    $C$DW$13        .dwtag  DW_TAG_formal_parameter
      69                            .dwattr $C$DW$13, DW_AT_type(*$C$DW$T$66)
      70                    $C$DW$14        .dwtag  DW_TAG_formal_parameter
      71                            .dwattr $C$DW$14, DW_AT_type(*$C$DW$T$32)
      72                    $C$DW$15        .dwtag  DW_TAG_formal_parameter
      73                            .dwattr $C$DW$15, DW_AT_type(*$C$DW$T$87)
      74                            .dwendtag $C$DW$11
      75                    
      76                    $C$DW$16        .dwtag  DW_TAG_variable, DW_AT_name("ADC_Queue")
      77                            .dwattr $C$DW$16, DW_AT_TI_symbol_name("ADC_Queue")
      78                            .dwattr $C$DW$16, DW_AT_type(*$C$DW$T$63)
      79                            .dwattr $C$DW$16, DW_AT_declaration
      80                            .dwattr $C$DW$16, DW_AT_external
      81                            .dwattr $C$DW$16, DW_AT_decl_file("../Tasks/Task_Temp.c")
      82                            .dwattr $C$DW$16, DW_AT_decl_line(0x15)
      83                            .dwattr $C$DW$16, DW_AT_decl_column(0x16)
      84                    $C$DW$17        .dwtag  DW_TAG_variable, DW_AT_name("Temp_Queue")
      85                            .dwattr $C$DW$17, DW_AT_TI_symbol_name("Temp_Queue")
      86                            .dwattr $C$DW$17, DW_AT_type(*$C$DW$T$63)
      87                            .dwattr $C$DW$17, DW_AT_declaration
      88                            .dwattr $C$DW$17, DW_AT_external
      89                            .dwattr $C$DW$17, DW_AT_decl_file("../Tasks/Task_Temp.c")
      90                            .dwattr $C$DW$17, DW_AT_decl_line(0x16)
      91                            .dwattr $C$DW$17, DW_AT_decl_column(0x16)
      92                    ;       C:\ti\ccsv6\tools\compiler\ti-cgt-arm_5.2.5\bin\armacpia.exe -@C:\\Users\\trilu\\AppData\\Loca
      93 00000000                   .sect   ".text"
      94                            .clink
      95                            .thumbfunc Task_Temp
      96 00000000                   .thumb
      97                            .global Task_Temp
      98                    
      99                    $C$DW$18        .dwtag  DW_TAG_subprogram, DW_AT_name("Task_Temp")
     100                            .dwattr $C$DW$18, DW_AT_low_pc(Task_Temp)
     101                            .dwattr $C$DW$18, DW_AT_high_pc(0x00)
     102                            .dwattr $C$DW$18, DW_AT_TI_symbol_name("Task_Temp")
     103                            .dwattr $C$DW$18, DW_AT_external
     104                            .dwattr $C$DW$18, DW_AT_TI_begin_file("../Tasks/Task_Temp.c")
     105                            .dwattr $C$DW$18, DW_AT_TI_begin_line(0x19)
     106                            .dwattr $C$DW$18, DW_AT_TI_begin_column(0x0d)
     107                            .dwattr $C$DW$18, DW_AT_decl_file("../Tasks/Task_Temp.c")
     108                            .dwattr $C$DW$18, DW_AT_decl_line(0x19)
     109                            .dwattr $C$DW$18, DW_AT_decl_column(0x0d)
     110                            .dwattr $C$DW$18, DW_AT_TI_max_frame_size(0x28)
TI ARM Assembler PC v5.2.5 Tue May 03 10:42:10 2016

Tools Copyright (c) 1996-2015 Texas Instruments Incorporated
Task_Temp.asm                                                        PAGE    3

     111                            .dwpsn  file "../Tasks/Task_Temp.c",line 25,column 45,is_stmt,address Task_Temp,isa 1
     112                    
     113                            .dwfde $C$DW$CIE, Task_Temp
     114                    $C$DW$19        .dwtag  DW_TAG_formal_parameter, DW_AT_name("pvParameters")
     115                            .dwattr $C$DW$19, DW_AT_TI_symbol_name("pvParameters")
     116                            .dwattr $C$DW$19, DW_AT_type(*$C$DW$T$3)
     117                            .dwattr $C$DW$19, DW_AT_location[DW_OP_reg0]
     118                    
     119                    ;*****************************************************************************
     120                    ;* FUNCTION NAME: Task_Temp                                                  *
     121                    ;*                                                                           *
     122                    ;*   Regs Modified     : A1,A2,A3,A4,V1,V2,V9,SP,LR,SR,D0,D0_hi,D1,D1_hi,D2, *
     123                    ;*                           D2_hi,D3,D3_hi,D4,D4_hi,D5,D5_hi,D6,D6_hi,D7,   *
     124                    ;*                           D7_hi,FPEXC,FPSCR                               *
     125                    ;*   Regs Used         : A1,A2,A3,A4,V1,V2,V9,SP,LR,SR,D0,D0_hi,D1,D1_hi,D2, *
     126                    ;*                           D2_hi,D3,D3_hi,D4,D4_hi,D5,D5_hi,D6,D6_hi,D7,   *
     127                    ;*                           D7_hi,FPEXC,FPSCR                               *
     128                    ;*   Local Frame Size  : 0 Args + 28 Auto + 12 Save = 40 byte                *
     129                    ;*****************************************************************************
     130 00000000           Task_Temp:
     131                    ;* --------------------------------------------------------------------------*
     132                            .dwcfi  cfa_offset, 0
     133 00000000 B530              PUSH      {V1, V2, LR}          ; [DPU_3_PIPE]  ; [ORIG 16-BIT INS]
     134                            .dwcfi  cfa_offset, 12
     135                            .dwcfi  save_reg_to_mem, 14, -4
     136                            .dwcfi  save_reg_to_mem, 5, -8
     137                            .dwcfi  save_reg_to_mem, 4, -12
     138 00000002 0D1CF1AD          SUB       SP, SP, #28           ; [DPU_3_PIPE]  ; [KEEP 32-BIT INS]
     139                            .dwcfi  cfa_offset, 40
     140                    $C$DW$20        .dwtag  DW_TAG_variable, DW_AT_name("pvParameters")
     141                            .dwattr $C$DW$20, DW_AT_TI_symbol_name("pvParameters")
     142                            .dwattr $C$DW$20, DW_AT_type(*$C$DW$T$3)
     143                            .dwattr $C$DW$20, DW_AT_location[DW_OP_breg13 0]
     144                    $C$DW$21        .dwtag  DW_TAG_variable, DW_AT_name("adc_val")
     145                            .dwattr $C$DW$21, DW_AT_TI_symbol_name("adc_val")
     146                            .dwattr $C$DW$21, DW_AT_type(*$C$DW$T$17)
     147                            .dwattr $C$DW$21, DW_AT_location[DW_OP_breg13 8]
     148                    $C$DW$22        .dwtag  DW_TAG_variable, DW_AT_name("ReportQueue_Status")
     149                            .dwattr $C$DW$22, DW_AT_TI_symbol_name("ReportQueue_Status")
     150                            .dwattr $C$DW$22, DW_AT_type(*$C$DW$T$55)
     151                            .dwattr $C$DW$22, DW_AT_location[DW_OP_breg13 16]
     152                    $C$DW$23        .dwtag  DW_TAG_variable, DW_AT_name("temp_val")
     153                            .dwattr $C$DW$23, DW_AT_TI_symbol_name("temp_val")
     154                            .dwattr $C$DW$23, DW_AT_type(*$C$DW$T$26)
     155                            .dwattr $C$DW$23, DW_AT_location[DW_OP_breg13 20]
     156                    $C$DW$24        .dwtag  DW_TAG_variable, DW_AT_name("int_t")
     157                            .dwattr $C$DW$24, DW_AT_TI_symbol_name("int_t")
     158                            .dwattr $C$DW$24, DW_AT_type(*$C$DW$T$26)
     159                            .dwattr $C$DW$24, DW_AT_location[DW_OP_breg13 24]
     160 00000006 9000              STR       A1, [SP, #0]          ; [DPU_3_PIPE] |25|  ; [ORIG 16-BIT INS]
     161                            .dwpsn  file "../Tasks/Task_Temp.c",line 38,column 10,is_stmt,isa 1
     162                    ;* --------------------------------------------------------------------------*
     163                    ;*   BEGIN LOOP ||$C$L1||
     164                    ;*
     165                    ;*   Loop source line                : 38
TI ARM Assembler PC v5.2.5 Tue May 03 10:42:10 2016

Tools Copyright (c) 1996-2015 Texas Instruments Incorporated
Task_Temp.asm                                                        PAGE    4

     166                    ;*   Loop closing brace source line  : 48
     167                    ;*   Known Minimum Trip Count        : 1
     168                    ;*   Known Maximum Trip Count        : 4294967295
     169                    ;*   Known Max Trip Count Factor     : 1
     170                    ;* --------------------------------------------------------------------------*
     171 00000008           ||$C$L1||:    
     172                            .dwpsn  file "../Tasks/Task_Temp.c",line 40,column 3,is_stmt,isa 1
     173 00000008 482B              LDR       A1, $C$CON1           ; [DPU_3_PIPE] |40|  ; [ORIG 16-BIT INS]
     174 0000000a 6800              LDR       A1, [A1, #0]          ; [DPU_3_PIPE] |40|  ; [ORIG 16-BIT INS]
     175 0000000c A902              ADD       A2, SP, #8            ; [DPU_3_PIPE] |40|  ; [ORIG 16-BIT INS]
     176 0000000e 220A              MOVS      A3, #10               ; [DPU_3_PIPE] |40|  ; [ORIG 16-BIT INS]
     177 00000010 2300              MOVS      A4, #0                ; [DPU_3_PIPE] |40|  ; [ORIG 16-BIT INS]
     178                    $C$DW$25        .dwtag  DW_TAG_TI_branch
     179                            .dwattr $C$DW$25, DW_AT_low_pc(0x00)
     180                            .dwattr $C$DW$25, DW_AT_name("xQueueGenericReceive")
     181                            .dwattr $C$DW$25, DW_AT_TI_call
     182 00000012 FFFEF7FF!         BL        xQueueGenericReceive  ; [DPU_3_PIPE] |40|  ; [KEEP 32-BIT INS]
     183                            ; CALL OCCURS {xQueueGenericReceive }  ; [] |40| 
     184 00000016 9004              STR       A1, [SP, #16]         ; [DPU_3_PIPE] |40|  ; [ORIG 16-BIT INS]
     185                            .dwpsn  file "../Tasks/Task_Temp.c",line 41,column 3,is_stmt,isa 1
     186 00000018 A802              ADD       A1, SP, #8            ; [DPU_3_PIPE] |41|  ; [ORIG 16-BIT INS]
     187 0000001a C803              LDMIA     A1, {A1,A2}           ; [DPU_3_PIPE] |41|  ; [ORIG 16-BIT INS]
     188                    $C$DW$26        .dwtag  DW_TAG_TI_branch
     189                            .dwattr $C$DW$26, DW_AT_low_pc(0x00)
     190                            .dwattr $C$DW$26, DW_AT_name("__aeabi_d2uiz")
     191                            .dwattr $C$DW$26, DW_AT_TI_call
     192 0000001c FFFEF7FF!         BL        __aeabi_d2uiz         ; [DPU_3_PIPE] |41|  ; [KEEP 32-BIT INS]
     193                            ; CALL OCCURS {__aeabi_d2uiz }   ; [] |41| 
     194 00000020 A21F              ADR       A3, $C$FL1            ; [DPU_3_PIPE] |41|  ; [ORIG 16-BIT INS]
     195 00000022 CA0C              LDMIA     A3, {A3,A4}           ; [DPU_3_PIPE] |41|  ; [ORIG 16-BIT INS]
     196 00000024 4604              MOV       V1, A1                ; [DPU_3_PIPE] |41|  ; [ORIG 16-BIT INS]
     197 00000026 A802              ADD       A1, SP, #8            ; [DPU_3_PIPE] |41|  ; [ORIG 16-BIT INS]
     198 00000028 C803              LDMIA     A1, {A1,A2}           ; [DPU_3_PIPE] |41|  ; [ORIG 16-BIT INS]
     199                    $C$DW$27        .dwtag  DW_TAG_TI_branch
     200                            .dwattr $C$DW$27, DW_AT_low_pc(0x00)
     201                            .dwattr $C$DW$27, DW_AT_name("__aeabi_dmul")
     202                            .dwattr $C$DW$27, DW_AT_TI_call
     203 0000002a FFFEF7FF!         BL        __aeabi_dmul          ; [DPU_3_PIPE] |41|  ; [KEEP 32-BIT INS]
     204                            ; CALL OCCURS {__aeabi_dmul }    ; [] |41| 
     205                    $C$DW$28        .dwtag  DW_TAG_TI_branch
     206                            .dwattr $C$DW$28, DW_AT_low_pc(0x00)
     207                            .dwattr $C$DW$28, DW_AT_name("__aeabi_d2uiz")
     208                            .dwattr $C$DW$28, DW_AT_TI_call
     209 0000002e FFFEF7FF!         BL        __aeabi_d2uiz         ; [DPU_3_PIPE] |41|  ; [KEEP 32-BIT INS]
     210                            ; CALL OCCURS {__aeabi_d2uiz }   ; [] |41| 
     211 00000032 757AF44F          MOV       V2, #1000             ; [DPU_3_PIPE] |41|  ; [KEEP 32-BIT INS]
     212 00000036 0014FB05          MLS       A1, V2, V1, A1        ; [DPU_3_PIPE] |41|  ; [KEEP 32-BIT INS]
     213 0000003a 9006              STR       A1, [SP, #24]         ; [DPU_3_PIPE] |41|  ; [ORIG 16-BIT INS]
     214                            .dwpsn  file "../Tasks/Task_Temp.c",line 42,column 3,is_stmt,isa 1
     215 0000003c A802              ADD       A1, SP, #8            ; [DPU_3_PIPE] |42|  ; [ORIG 16-BIT INS]
     216 0000003e 000CE890          LDMIA     A1, {A3,A4}           ; [DPU_3_PIPE] |42|  ; [KEEP 32-BIT INS]
     217 00000042 A019              ADR       A1, $C$FL2            ; [DPU_3_PIPE] |42|  ; [ORIG 16-BIT INS]
     218 00000044 C803              LDMIA     A1, {A1,A2}           ; [DPU_3_PIPE] |42|  ; [ORIG 16-BIT INS]
     219                    $C$DW$29        .dwtag  DW_TAG_TI_branch
     220                            .dwattr $C$DW$29, DW_AT_low_pc(0x00)
TI ARM Assembler PC v5.2.5 Tue May 03 10:42:10 2016

Tools Copyright (c) 1996-2015 Texas Instruments Incorporated
Task_Temp.asm                                                        PAGE    5

     221                            .dwattr $C$DW$29, DW_AT_name("__aeabi_dmul")
     222                            .dwattr $C$DW$29, DW_AT_TI_call
     223 00000046 FFFEF7FF!         BL        __aeabi_dmul          ; [DPU_3_PIPE] |42|  ; [KEEP 32-BIT INS]
     224                            ; CALL OCCURS {__aeabi_dmul }    ; [] |42| 
     225 0000004a 4602              MOV       A3, A1                ; [DPU_3_PIPE] |42|  ; [ORIG 16-BIT INS]
     226 0000004c 460B              MOV       A4, A2                ; [DPU_3_PIPE] |42|  ; [ORIG 16-BIT INS]
     227 0000004e A018              ADR       A1, $C$FL3            ; [DPU_3_PIPE] |42|  ; [ORIG 16-BIT INS]
     228 00000050 C803              LDMIA     A1, {A1,A2}           ; [DPU_3_PIPE] |42|  ; [ORIG 16-BIT INS]
     229                    $C$DW$30        .dwtag  DW_TAG_TI_branch
     230                            .dwattr $C$DW$30, DW_AT_low_pc(0x00)
     231                            .dwattr $C$DW$30, DW_AT_name("__aeabi_dsub")
     232                            .dwattr $C$DW$30, DW_AT_TI_call
     233 00000052 FFFEF7FF!         BL        __aeabi_dsub          ; [DPU_3_PIPE] |42|  ; [KEEP 32-BIT INS]
     234                            ; CALL OCCURS {__aeabi_dsub }    ; [] |42| 
     235                    $C$DW$31        .dwtag  DW_TAG_TI_branch
     236                            .dwattr $C$DW$31, DW_AT_low_pc(0x00)
     237                            .dwattr $C$DW$31, DW_AT_name("__aeabi_d2uiz")
     238                            .dwattr $C$DW$31, DW_AT_TI_call
     239 00000056 FFFEF7FF!         BL        __aeabi_d2uiz         ; [DPU_3_PIPE] |42|  ; [KEEP 32-BIT INS]
     240                            ; CALL OCCURS {__aeabi_d2uiz }   ; [] |42| 
     241 0000005a 9005              STR       A1, [SP, #20]         ; [DPU_3_PIPE] |42|  ; [ORIG 16-BIT INS]
     242                            .dwpsn  file "../Tasks/Task_Temp.c",line 43,column 3,is_stmt,isa 1
     243 0000005c 9804              LDR       A1, [SP, #16]         ; [DPU_3_PIPE] |43|  ; [ORIG 16-BIT INS]
     244 0000005e 2801              CMP       A1, #1                ; [DPU_3_PIPE] |43|  ; [ORIG 16-BIT INS]
     245 00000060 D108              BNE       ||$C$L2||             ; [DPU_3_PIPE] |43|  ; [ORIG 16-BIT INS]
     246                            ; BRANCHCC OCCURS {||$C$L2||}    ; [] |43| 
     247                    ;* --------------------------------------------------------------------------*
     248                            .dwpsn  file "../Tasks/Task_Temp.c",line 44,column 4,is_stmt,isa 1
     249 00000062 A802              ADD       A1, SP, #8            ; [DPU_3_PIPE] |44|  ; [ORIG 16-BIT INS]
     250 00000064 C803              LDMIA     A1, {A1,A2}           ; [DPU_3_PIPE] |44|  ; [ORIG 16-BIT INS]
     251                    $C$DW$32        .dwtag  DW_TAG_TI_branch
     252                            .dwattr $C$DW$32, DW_AT_low_pc(0x00)
     253                            .dwattr $C$DW$32, DW_AT_name("__aeabi_d2uiz")
     254                            .dwattr $C$DW$32, DW_AT_TI_call
     255 00000066 FFFEF7FF!         BL        __aeabi_d2uiz         ; [DPU_3_PIPE] |44|  ; [KEEP 32-BIT INS]
     256                            ; CALL OCCURS {__aeabi_d2uiz }   ; [] |44| 
     257 0000006a 9A06              LDR       A3, [SP, #24]         ; [DPU_3_PIPE] |44|  ; [ORIG 16-BIT INS]
     258 0000006c 4601              MOV       A2, A1                ; [DPU_3_PIPE] |44|  ; [ORIG 16-BIT INS]
     259 0000006e A007              ADR       A1, $C$SL1            ; [DPU_3_PIPE] |44|  ; [ORIG 16-BIT INS]
     260                    $C$DW$33        .dwtag  DW_TAG_TI_branch
     261                            .dwattr $C$DW$33, DW_AT_low_pc(0x00)
     262                            .dwattr $C$DW$33, DW_AT_name("UARTprintf")
     263                            .dwattr $C$DW$33, DW_AT_TI_call
     264 00000070 FFFEF7FF!         BL        UARTprintf            ; [DPU_3_PIPE] |44|  ; [KEEP 32-BIT INS]
     265                            ; CALL OCCURS {UARTprintf }      ; [] |44| 
     266                    ;* --------------------------------------------------------------------------*
     267 00000074           ||$C$L2||:    
     268                            .dwpsn  file "../Tasks/Task_Temp.c",line 46,column 3,is_stmt,isa 1
     269 00000074 4811              LDR       A1, $C$CON2           ; [DPU_3_PIPE] |46|  ; [ORIG 16-BIT INS]
     270 00000076 6800              LDR       A1, [A1, #0]          ; [DPU_3_PIPE] |46|  ; [ORIG 16-BIT INS]
     271 00000078 A905              ADD       A2, SP, #20           ; [DPU_3_PIPE] |46|  ; [ORIG 16-BIT INS]
     272 0000007a 220A              MOVS      A3, #10               ; [DPU_3_PIPE] |46|  ; [ORIG 16-BIT INS]
     273 0000007c 2300              MOVS      A4, #0                ; [DPU_3_PIPE] |46|  ; [ORIG 16-BIT INS]
     274                    $C$DW$34        .dwtag  DW_TAG_TI_branch
     275                            .dwattr $C$DW$34, DW_AT_low_pc(0x00)
TI ARM Assembler PC v5.2.5 Tue May 03 10:42:10 2016

Tools Copyright (c) 1996-2015 Texas Instruments Incorporated
Task_Temp.asm                                                        PAGE    6

     276                            .dwattr $C$DW$34, DW_AT_name("xQueueGenericSend")
     277                            .dwattr $C$DW$34, DW_AT_TI_call
     278 0000007e FFFEF7FF!         BL        xQueueGenericSend     ; [DPU_3_PIPE] |46|  ; [KEEP 32-BIT INS]
     279                            ; CALL OCCURS {xQueueGenericSend }  ; [] |46| 
     280                            .dwpsn  file "../Tasks/Task_Temp.c",line 47,column 3,is_stmt,isa 1
     281 00000082 60FAF44F          MOV       A1, #2000             ; [DPU_3_PIPE] |47|  ; [KEEP 32-BIT INS]
     282                    $C$DW$35        .dwtag  DW_TAG_TI_branch
     283                            .dwattr $C$DW$35, DW_AT_low_pc(0x00)
     284                            .dwattr $C$DW$35, DW_AT_name("vTaskDelay")
     285                            .dwattr $C$DW$35, DW_AT_TI_call
     286 00000086 FFFEF7FF!         BL        vTaskDelay            ; [DPU_3_PIPE] |47|  ; [KEEP 32-BIT INS]
     287                            ; CALL OCCURS {vTaskDelay }      ; [] |47| 
     288                            .dwpsn  file "../Tasks/Task_Temp.c",line 38,column 10,is_stmt,isa 1
     289 0000008a E7BD              B         ||$C$L1||             ; [DPU_3_PIPE] |38|  ; [ORIG 16-BIT INS]
     290                            ; BRANCH OCCURS {||$C$L1||}      ; [] |38| 
     291                    ;* --------------------------------------------------------------------------*
     292                            .dwattr $C$DW$18, DW_AT_TI_end_file("../Tasks/Task_Temp.c")
     293                            .dwattr $C$DW$18, DW_AT_TI_end_line(0x31)
     294                            .dwattr $C$DW$18, DW_AT_TI_end_column(0x01)
     295                            .dwendentry
     296                            .dwendtag $C$DW$18
     297                    
     298                    ;******************************************************************************
     299                    ;* STRINGS                                                                    *
     300                    ;******************************************************************************
     301 0000008c                   .sect   ".text"
     302                            .align  4
     303 0000008c 4D        ||$C$SL1||:     .string "Measured: %d.%d",10,0
         0000008d 65       
         0000008e 61       
         0000008f 73       
         00000090 75       
         00000091 72       
         00000092 65       
         00000093 64       
         00000094 3A       
         00000095 20       
         00000096 25       
         00000097 64       
         00000098 2E       
         00000099 25       
         0000009a 64       
         0000009b 0A       
         0000009c 00       
     304                    ;******************************************************************************
     305                    ;* FLOATING-POINT CONSTANTS                                                   *
     306                    ;******************************************************************************
     307 0000009d                   .sect   ".text"
     308                            .align  4
     309 000000a0 00000000  ||$C$FL1||:     .word   000000000h
     310 000000a4 408F4000          .word   0408f4000h      ; 1000
     311                            .align  4
     312 000000a8 33333333  ||$C$FL2||:     .word   033333333h
     313 000000ac 403E7333          .word   0403e7333h      ; 30.44999999999999928946
     314                            .align  4
TI ARM Assembler PC v5.2.5 Tue May 03 10:42:10 2016

Tools Copyright (c) 1996-2015 Texas Instruments Incorporated
Task_Temp.asm                                                        PAGE    7

     315 000000b0 00000000  ||$C$FL3||:     .word   000000000h
     316 000000b4 4056C000          .word   04056c000h      ; 91
     317                    ;******************************************************************************
     318                    ;* CONSTANT TABLE                                                             *
     319                    ;******************************************************************************
     320 000000b8                   .sect   ".text"
     321                            .align  4
     322 000000b8 00000000! ||$C$CON1||:    .bits   ADC_Queue,32
     323                            .align  4
     324 000000bc 00000000! ||$C$CON2||:    .bits   Temp_Queue,32
     325                    ;*****************************************************************************
     326                    ;* UNDEFINED EXTERNAL REFERENCES                                             *
     327                    ;*****************************************************************************
     328                            .global UARTprintf
     329                            .global vTaskDelay
     330                            .global xQueueGenericSend
     331                            .global xQueueGenericReceive
     332                            .global ADC_Queue
     333                            .global Temp_Queue
     334                            .global __aeabi_d2uiz
     335                            .global __aeabi_dmul
     336                            .global __aeabi_dsub
     337                    
     338                    ;******************************************************************************
     339                    ;* BUILD ATTRIBUTES                                                           *
     340                    ;******************************************************************************
     341                            .battr "aeabi", Tag_File, 1, Tag_ABI_PCS_wchar_t(2)
     342                            .battr "aeabi", Tag_File, 1, Tag_ABI_FP_rounding(0)
     343                            .battr "aeabi", Tag_File, 1, Tag_ABI_FP_denormal(0)
     344                            .battr "aeabi", Tag_File, 1, Tag_ABI_FP_exceptions(0)
     345                            .battr "aeabi", Tag_File, 1, Tag_ABI_FP_number_model(1)
     346                            .battr "aeabi", Tag_File, 1, Tag_ABI_enum_size(1)
     347                            .battr "aeabi", Tag_File, 1, Tag_ABI_optimization_goals(5)
     348                            .battr "aeabi", Tag_File, 1, Tag_ABI_FP_optimization_goals(0)
     349                            .battr "TI", Tag_File, 1, Tag_Bitfield_layout(2)
     350                            .battr "TI", Tag_File, 1, Tag_FP_interface(1)
     351                    
     352                    ;******************************************************************************
     353                    ;* TYPE INFORMATION                                                           *
     354                    ;******************************************************************************
     355                    
     356                    $C$DW$T$51      .dwtag  DW_TAG_enumeration_type
     357                            .dwattr $C$DW$T$51, DW_AT_byte_size(0x01)
     358                    $C$DW$36        .dwtag  DW_TAG_enumerator, DW_AT_name("eRunning"), DW_AT_const_value(0x00)
     359                            .dwattr $C$DW$36, DW_AT_decl_file("C:/Users/trilu/Downloads/TI_ARM_Tiva_Projects_EECS_690_Sp16
     360                            .dwattr $C$DW$36, DW_AT_decl_line(0x72)
     361                            .dwattr $C$DW$36, DW_AT_decl_column(0x02)
     362                    $C$DW$37        .dwtag  DW_TAG_enumerator, DW_AT_name("eReady"), DW_AT_const_value(0x01)
     363                            .dwattr $C$DW$37, DW_AT_decl_file("C:/Users/trilu/Downloads/TI_ARM_Tiva_Projects_EECS_690_Sp16
     364                            .dwattr $C$DW$37, DW_AT_decl_line(0x73)
     365                            .dwattr $C$DW$37, DW_AT_decl_column(0x02)
     366                    $C$DW$38        .dwtag  DW_TAG_enumerator, DW_AT_name("eBlocked"), DW_AT_const_value(0x02)
     367                            .dwattr $C$DW$38, DW_AT_decl_file("C:/Users/trilu/Downloads/TI_ARM_Tiva_Projects_EECS_690_Sp16
     368                            .dwattr $C$DW$38, DW_AT_decl_line(0x74)
     369                            .dwattr $C$DW$38, DW_AT_decl_column(0x02)
TI ARM Assembler PC v5.2.5 Tue May 03 10:42:10 2016

Tools Copyright (c) 1996-2015 Texas Instruments Incorporated
Task_Temp.asm                                                        PAGE    8

     370                    $C$DW$39        .dwtag  DW_TAG_enumerator, DW_AT_name("eSuspended"), DW_AT_const_value(0x03)
     371                            .dwattr $C$DW$39, DW_AT_decl_file("C:/Users/trilu/Downloads/TI_ARM_Tiva_Projects_EECS_690_Sp16
     372                            .dwattr $C$DW$39, DW_AT_decl_line(0x75)
     373                            .dwattr $C$DW$39, DW_AT_decl_column(0x02)
     374                    $C$DW$40        .dwtag  DW_TAG_enumerator, DW_AT_name("eDeleted"), DW_AT_const_value(0x04)
     375                            .dwattr $C$DW$40, DW_AT_decl_file("C:/Users/trilu/Downloads/TI_ARM_Tiva_Projects_EECS_690_Sp16
     376                            .dwattr $C$DW$40, DW_AT_decl_line(0x76)
     377                            .dwattr $C$DW$40, DW_AT_decl_column(0x02)
     378                            .dwendtag $C$DW$T$51
     379                    
     380                            .dwattr $C$DW$T$51, DW_AT_decl_file("C:/Users/trilu/Downloads/TI_ARM_Tiva_Projects_EECS_690_Sp
     381                            .dwattr $C$DW$T$51, DW_AT_decl_line(0x71)
     382                            .dwattr $C$DW$T$51, DW_AT_decl_column(0x01)
     383                    $C$DW$T$52      .dwtag  DW_TAG_typedef, DW_AT_name("eTaskState")
     384                            .dwattr $C$DW$T$52, DW_AT_type(*$C$DW$T$51)
     385                            .dwattr $C$DW$T$52, DW_AT_language(DW_LANG_C)
     386                            .dwattr $C$DW$T$52, DW_AT_decl_file("C:/Users/trilu/Downloads/TI_ARM_Tiva_Projects_EECS_690_Sp
     387                            .dwattr $C$DW$T$52, DW_AT_decl_line(0x77)
     388                            .dwattr $C$DW$T$52, DW_AT_decl_column(0x03)
     389                    
     390                    $C$DW$T$57      .dwtag  DW_TAG_enumeration_type
     391                            .dwattr $C$DW$T$57, DW_AT_byte_size(0x01)
     392                    $C$DW$41        .dwtag  DW_TAG_enumerator, DW_AT_name("eNoAction"), DW_AT_const_value(0x00)
     393                            .dwattr $C$DW$41, DW_AT_decl_file("C:/Users/trilu/Downloads/TI_ARM_Tiva_Projects_EECS_690_Sp16
     394                            .dwattr $C$DW$41, DW_AT_decl_line(0x7c)
     395                            .dwattr $C$DW$41, DW_AT_decl_column(0x02)
     396                    $C$DW$42        .dwtag  DW_TAG_enumerator, DW_AT_name("eSetBits"), DW_AT_const_value(0x01)
     397                            .dwattr $C$DW$42, DW_AT_decl_file("C:/Users/trilu/Downloads/TI_ARM_Tiva_Projects_EECS_690_Sp16
     398                            .dwattr $C$DW$42, DW_AT_decl_line(0x7d)
     399                            .dwattr $C$DW$42, DW_AT_decl_column(0x02)
     400                    $C$DW$43        .dwtag  DW_TAG_enumerator, DW_AT_name("eIncrement"), DW_AT_const_value(0x02)
     401                            .dwattr $C$DW$43, DW_AT_decl_file("C:/Users/trilu/Downloads/TI_ARM_Tiva_Projects_EECS_690_Sp16
     402                            .dwattr $C$DW$43, DW_AT_decl_line(0x7e)
     403                            .dwattr $C$DW$43, DW_AT_decl_column(0x02)
     404                    $C$DW$44        .dwtag  DW_TAG_enumerator, DW_AT_name("eSetValueWithOverwrite"), DW_AT_const_value(0x0
     405                            .dwattr $C$DW$44, DW_AT_decl_file("C:/Users/trilu/Downloads/TI_ARM_Tiva_Projects_EECS_690_Sp16
     406                            .dwattr $C$DW$44, DW_AT_decl_line(0x7f)
     407                            .dwattr $C$DW$44, DW_AT_decl_column(0x02)
     408                    $C$DW$45        .dwtag  DW_TAG_enumerator, DW_AT_name("eSetValueWithoutOverwrite"), DW_AT_const_value(
     409                            .dwattr $C$DW$45, DW_AT_decl_file("C:/Users/trilu/Downloads/TI_ARM_Tiva_Projects_EECS_690_Sp16
     410                            .dwattr $C$DW$45, DW_AT_decl_line(0x80)
     411                            .dwattr $C$DW$45, DW_AT_decl_column(0x02)
     412                            .dwendtag $C$DW$T$57
     413                    
     414                            .dwattr $C$DW$T$57, DW_AT_decl_file("C:/Users/trilu/Downloads/TI_ARM_Tiva_Projects_EECS_690_Sp
     415                            .dwattr $C$DW$T$57, DW_AT_decl_line(0x7b)
     416                            .dwattr $C$DW$T$57, DW_AT_decl_column(0x01)
     417                    $C$DW$T$58      .dwtag  DW_TAG_typedef, DW_AT_name("eNotifyAction")
     418                            .dwattr $C$DW$T$58, DW_AT_type(*$C$DW$T$57)
     419                            .dwattr $C$DW$T$58, DW_AT_language(DW_LANG_C)
     420                            .dwattr $C$DW$T$58, DW_AT_decl_file("C:/Users/trilu/Downloads/TI_ARM_Tiva_Projects_EECS_690_Sp
     421                            .dwattr $C$DW$T$58, DW_AT_decl_line(0x81)
     422                            .dwattr $C$DW$T$58, DW_AT_decl_column(0x03)
     423                    
     424                    $C$DW$T$59      .dwtag  DW_TAG_enumeration_type
TI ARM Assembler PC v5.2.5 Tue May 03 10:42:10 2016

Tools Copyright (c) 1996-2015 Texas Instruments Incorporated
Task_Temp.asm                                                        PAGE    9

     425                            .dwattr $C$DW$T$59, DW_AT_byte_size(0x01)
     426                    $C$DW$46        .dwtag  DW_TAG_enumerator, DW_AT_name("eAbortSleep"), DW_AT_const_value(0x00)
     427                            .dwattr $C$DW$46, DW_AT_decl_file("C:/Users/trilu/Downloads/TI_ARM_Tiva_Projects_EECS_690_Sp16
     428                            .dwattr $C$DW$46, DW_AT_decl_line(0xb5)
     429                            .dwattr $C$DW$46, DW_AT_decl_column(0x02)
     430                    $C$DW$47        .dwtag  DW_TAG_enumerator, DW_AT_name("eStandardSleep"), DW_AT_const_value(0x01)
     431                            .dwattr $C$DW$47, DW_AT_decl_file("C:/Users/trilu/Downloads/TI_ARM_Tiva_Projects_EECS_690_Sp16
     432                            .dwattr $C$DW$47, DW_AT_decl_line(0xb6)
     433                            .dwattr $C$DW$47, DW_AT_decl_column(0x02)
     434                    $C$DW$48        .dwtag  DW_TAG_enumerator, DW_AT_name("eNoTasksWaitingTimeout"), DW_AT_const_value(0x0
     435                            .dwattr $C$DW$48, DW_AT_decl_file("C:/Users/trilu/Downloads/TI_ARM_Tiva_Projects_EECS_690_Sp16
     436                            .dwattr $C$DW$48, DW_AT_decl_line(0xb7)
     437                            .dwattr $C$DW$48, DW_AT_decl_column(0x02)
     438                            .dwendtag $C$DW$T$59
     439                    
     440                            .dwattr $C$DW$T$59, DW_AT_decl_file("C:/Users/trilu/Downloads/TI_ARM_Tiva_Projects_EECS_690_Sp
     441                            .dwattr $C$DW$T$59, DW_AT_decl_line(0xb4)
     442                            .dwattr $C$DW$T$59, DW_AT_decl_column(0x01)
     443                    $C$DW$T$60      .dwtag  DW_TAG_typedef, DW_AT_name("eSleepModeStatus")
     444                            .dwattr $C$DW$T$60, DW_AT_type(*$C$DW$T$59)
     445                            .dwattr $C$DW$T$60, DW_AT_language(DW_LANG_C)
     446                            .dwattr $C$DW$T$60, DW_AT_decl_file("C:/Users/trilu/Downloads/TI_ARM_Tiva_Projects_EECS_690_Sp
     447                            .dwattr $C$DW$T$60, DW_AT_decl_line(0xb8)
     448                            .dwattr $C$DW$T$60, DW_AT_decl_column(0x03)
     449                    
     450                    $C$DW$T$20      .dwtag  DW_TAG_structure_type
     451                            .dwattr $C$DW$T$20, DW_AT_byte_size(0x18)
     452                    $C$DW$49        .dwtag  DW_TAG_member
     453                            .dwattr $C$DW$49, DW_AT_type(*$C$DW$T$10)
     454                            .dwattr $C$DW$49, DW_AT_name("fd")
     455                            .dwattr $C$DW$49, DW_AT_TI_symbol_name("fd")
     456                            .dwattr $C$DW$49, DW_AT_data_member_location[DW_OP_plus_uconst 0x0]
     457                            .dwattr $C$DW$49, DW_AT_accessibility(DW_ACCESS_public)
     458                            .dwattr $C$DW$49, DW_AT_decl_file("C:/ti/ccsv6/tools/compiler/ti-cgt-arm_5.2.5/include/stdio.h
     459                            .dwattr $C$DW$49, DW_AT_decl_line(0x5c)
     460                            .dwattr $C$DW$49, DW_AT_decl_column(0x0b)
     461                    $C$DW$50        .dwtag  DW_TAG_member
     462                            .dwattr $C$DW$50, DW_AT_type(*$C$DW$T$19)
     463                            .dwattr $C$DW$50, DW_AT_name("buf")
     464                            .dwattr $C$DW$50, DW_AT_TI_symbol_name("buf")
     465                            .dwattr $C$DW$50, DW_AT_data_member_location[DW_OP_plus_uconst 0x4]
     466                            .dwattr $C$DW$50, DW_AT_accessibility(DW_ACCESS_public)
     467                            .dwattr $C$DW$50, DW_AT_decl_file("C:/ti/ccsv6/tools/compiler/ti-cgt-arm_5.2.5/include/stdio.h
     468                            .dwattr $C$DW$50, DW_AT_decl_line(0x5d)
     469                            .dwattr $C$DW$50, DW_AT_decl_column(0x16)
     470                    $C$DW$51        .dwtag  DW_TAG_member
     471                            .dwattr $C$DW$51, DW_AT_type(*$C$DW$T$19)
     472                            .dwattr $C$DW$51, DW_AT_name("pos")
     473                            .dwattr $C$DW$51, DW_AT_TI_symbol_name("pos")
     474                            .dwattr $C$DW$51, DW_AT_data_member_location[DW_OP_plus_uconst 0x8]
     475                            .dwattr $C$DW$51, DW_AT_accessibility(DW_ACCESS_public)
     476                            .dwattr $C$DW$51, DW_AT_decl_file("C:/ti/ccsv6/tools/compiler/ti-cgt-arm_5.2.5/include/stdio.h
     477                            .dwattr $C$DW$51, DW_AT_decl_line(0x5e)
     478                            .dwattr $C$DW$51, DW_AT_decl_column(0x16)
     479                    $C$DW$52        .dwtag  DW_TAG_member
TI ARM Assembler PC v5.2.5 Tue May 03 10:42:10 2016

Tools Copyright (c) 1996-2015 Texas Instruments Incorporated
Task_Temp.asm                                                        PAGE   10

     480                            .dwattr $C$DW$52, DW_AT_type(*$C$DW$T$19)
     481                            .dwattr $C$DW$52, DW_AT_name("bufend")
     482                            .dwattr $C$DW$52, DW_AT_TI_symbol_name("bufend")
     483                            .dwattr $C$DW$52, DW_AT_data_member_location[DW_OP_plus_uconst 0xc]
     484                            .dwattr $C$DW$52, DW_AT_accessibility(DW_ACCESS_public)
     485                            .dwattr $C$DW$52, DW_AT_decl_file("C:/ti/ccsv6/tools/compiler/ti-cgt-arm_5.2.5/include/stdio.h
     486                            .dwattr $C$DW$52, DW_AT_decl_line(0x5f)
     487                            .dwattr $C$DW$52, DW_AT_decl_column(0x16)
     488                    $C$DW$53        .dwtag  DW_TAG_member
     489                            .dwattr $C$DW$53, DW_AT_type(*$C$DW$T$19)
     490                            .dwattr $C$DW$53, DW_AT_name("buff_stop")
     491                            .dwattr $C$DW$53, DW_AT_TI_symbol_name("buff_stop")
     492                            .dwattr $C$DW$53, DW_AT_data_member_location[DW_OP_plus_uconst 0x10]
     493                            .dwattr $C$DW$53, DW_AT_accessibility(DW_ACCESS_public)
     494                            .dwattr $C$DW$53, DW_AT_decl_file("C:/ti/ccsv6/tools/compiler/ti-cgt-arm_5.2.5/include/stdio.h
     495                            .dwattr $C$DW$53, DW_AT_decl_line(0x60)
     496                            .dwattr $C$DW$53, DW_AT_decl_column(0x16)
     497                    $C$DW$54        .dwtag  DW_TAG_member
     498                            .dwattr $C$DW$54, DW_AT_type(*$C$DW$T$11)
     499                            .dwattr $C$DW$54, DW_AT_name("flags")
     500                            .dwattr $C$DW$54, DW_AT_TI_symbol_name("flags")
     501                            .dwattr $C$DW$54, DW_AT_data_member_location[DW_OP_plus_uconst 0x14]
     502                            .dwattr $C$DW$54, DW_AT_accessibility(DW_ACCESS_public)
     503                            .dwattr $C$DW$54, DW_AT_decl_file("C:/ti/ccsv6/tools/compiler/ti-cgt-arm_5.2.5/include/stdio.h
     504                            .dwattr $C$DW$54, DW_AT_decl_line(0x61)
     505                            .dwattr $C$DW$54, DW_AT_decl_column(0x16)
     506                            .dwendtag $C$DW$T$20
     507                    
     508                            .dwattr $C$DW$T$20, DW_AT_decl_file("C:/ti/ccsv6/tools/compiler/ti-cgt-arm_5.2.5/include/stdio
     509                            .dwattr $C$DW$T$20, DW_AT_decl_line(0x5b)
     510                            .dwattr $C$DW$T$20, DW_AT_decl_column(0x10)
     511                    $C$DW$T$61      .dwtag  DW_TAG_typedef, DW_AT_name("FILE")
     512                            .dwattr $C$DW$T$61, DW_AT_type(*$C$DW$T$20)
     513                            .dwattr $C$DW$T$61, DW_AT_language(DW_LANG_C)
     514                            .dwattr $C$DW$T$61, DW_AT_decl_file("C:/ti/ccsv6/tools/compiler/ti-cgt-arm_5.2.5/include/stdio
     515                            .dwattr $C$DW$T$61, DW_AT_decl_line(0x62)
     516                            .dwattr $C$DW$T$61, DW_AT_decl_column(0x03)
     517                    
     518                    $C$DW$T$24      .dwtag  DW_TAG_structure_type
     519                            .dwattr $C$DW$T$24, DW_AT_name("HeapRegion")
     520                            .dwattr $C$DW$T$24, DW_AT_byte_size(0x08)
     521                    $C$DW$55        .dwtag  DW_TAG_member
     522                            .dwattr $C$DW$55, DW_AT_type(*$C$DW$T$22)
     523                            .dwattr $C$DW$55, DW_AT_name("pucStartAddress")
     524                            .dwattr $C$DW$55, DW_AT_TI_symbol_name("pucStartAddress")
     525                            .dwattr $C$DW$55, DW_AT_data_member_location[DW_OP_plus_uconst 0x0]
     526                            .dwattr $C$DW$55, DW_AT_accessibility(DW_ACCESS_public)
     527                            .dwattr $C$DW$55, DW_AT_decl_file("C:\Users\trilu\Downloads\TI_ARM_Tiva_Projects_EECS_690_Sp16
     528                            .dwattr $C$DW$55, DW_AT_decl_line(0x96)
     529                            .dwattr $C$DW$55, DW_AT_decl_column(0x0b)
     530                    $C$DW$56        .dwtag  DW_TAG_member
     531                            .dwattr $C$DW$56, DW_AT_type(*$C$DW$T$23)
     532                            .dwattr $C$DW$56, DW_AT_name("xSizeInBytes")
     533                            .dwattr $C$DW$56, DW_AT_TI_symbol_name("xSizeInBytes")
     534                            .dwattr $C$DW$56, DW_AT_data_member_location[DW_OP_plus_uconst 0x4]
TI ARM Assembler PC v5.2.5 Tue May 03 10:42:10 2016

Tools Copyright (c) 1996-2015 Texas Instruments Incorporated
Task_Temp.asm                                                        PAGE   11

     535                            .dwattr $C$DW$56, DW_AT_accessibility(DW_ACCESS_public)
     536                            .dwattr $C$DW$56, DW_AT_decl_file("C:\Users\trilu\Downloads\TI_ARM_Tiva_Projects_EECS_690_Sp16
     537                            .dwattr $C$DW$56, DW_AT_decl_line(0x97)
     538                            .dwattr $C$DW$56, DW_AT_decl_column(0x09)
     539                            .dwendtag $C$DW$T$24
     540                    
     541                            .dwattr $C$DW$T$24, DW_AT_decl_file("C:\Users\trilu\Downloads\TI_ARM_Tiva_Projects_EECS_690_Sp
     542                            .dwattr $C$DW$T$24, DW_AT_decl_line(0x94)
     543                            .dwattr $C$DW$T$24, DW_AT_decl_column(0x10)
     544                    $C$DW$T$62      .dwtag  DW_TAG_typedef, DW_AT_name("HeapRegion_t")
     545                            .dwattr $C$DW$T$62, DW_AT_type(*$C$DW$T$24)
     546                            .dwattr $C$DW$T$62, DW_AT_language(DW_LANG_C)
     547                            .dwattr $C$DW$T$62, DW_AT_decl_file("C:\Users\trilu\Downloads\TI_ARM_Tiva_Projects_EECS_690_Sp
     548                            .dwattr $C$DW$T$62, DW_AT_decl_line(0x98)
     549                            .dwattr $C$DW$T$62, DW_AT_decl_column(0x03)
     550                    $C$DW$T$2       .dwtag  DW_TAG_unspecified_type
     551                            .dwattr $C$DW$T$2, DW_AT_name("void")
     552                    $C$DW$T$3       .dwtag  DW_TAG_pointer_type
     553                            .dwattr $C$DW$T$3, DW_AT_type(*$C$DW$T$2)
     554                            .dwattr $C$DW$T$3, DW_AT_address_class(0x20)
     555                    $C$DW$T$63      .dwtag  DW_TAG_typedef, DW_AT_name("QueueHandle_t")
     556                            .dwattr $C$DW$T$63, DW_AT_type(*$C$DW$T$3)
     557                            .dwattr $C$DW$T$63, DW_AT_language(DW_LANG_C)
     558                            .dwattr $C$DW$T$63, DW_AT_decl_file("C:/Users/trilu/Downloads/TI_ARM_Tiva_Projects_EECS_690_Sp
     559                            .dwattr $C$DW$T$63, DW_AT_decl_line(0x58)
     560                            .dwattr $C$DW$T$63, DW_AT_decl_column(0x10)
     561                    $C$DW$T$64      .dwtag  DW_TAG_typedef, DW_AT_name("QueueSetHandle_t")
     562                            .dwattr $C$DW$T$64, DW_AT_type(*$C$DW$T$3)
     563                            .dwattr $C$DW$T$64, DW_AT_language(DW_LANG_C)
     564                            .dwattr $C$DW$T$64, DW_AT_decl_file("C:/Users/trilu/Downloads/TI_ARM_Tiva_Projects_EECS_690_Sp
     565                            .dwattr $C$DW$T$64, DW_AT_decl_line(0x5f)
     566                            .dwattr $C$DW$T$64, DW_AT_decl_column(0x10)
     567                    $C$DW$T$65      .dwtag  DW_TAG_typedef, DW_AT_name("QueueSetMemberHandle_t")
     568                            .dwattr $C$DW$T$65, DW_AT_type(*$C$DW$T$3)
     569                            .dwattr $C$DW$T$65, DW_AT_language(DW_LANG_C)
     570                            .dwattr $C$DW$T$65, DW_AT_decl_file("C:/Users/trilu/Downloads/TI_ARM_Tiva_Projects_EECS_690_Sp
     571                            .dwattr $C$DW$T$65, DW_AT_decl_line(0x66)
     572                            .dwattr $C$DW$T$65, DW_AT_decl_column(0x10)
     573                    $C$DW$T$50      .dwtag  DW_TAG_typedef, DW_AT_name("TaskHandle_t")
     574                            .dwattr $C$DW$T$50, DW_AT_type(*$C$DW$T$3)
     575                            .dwattr $C$DW$T$50, DW_AT_language(DW_LANG_C)
     576                            .dwattr $C$DW$T$50, DW_AT_decl_file("C:/Users/trilu/Downloads/TI_ARM_Tiva_Projects_EECS_690_Sp
     577                            .dwattr $C$DW$T$50, DW_AT_decl_line(0x67)
     578                            .dwattr $C$DW$T$50, DW_AT_decl_column(0x10)
     579                    $C$DW$T$66      .dwtag  DW_TAG_const_type
     580                            .dwattr $C$DW$T$66, DW_AT_type(*$C$DW$T$3)
     581                    
     582                    $C$DW$T$37      .dwtag  DW_TAG_subroutine_type
     583                            .dwattr $C$DW$T$37, DW_AT_language(DW_LANG_C)
     584                    $C$DW$57        .dwtag  DW_TAG_formal_parameter
     585                            .dwattr $C$DW$57, DW_AT_type(*$C$DW$T$3)
     586                            .dwendtag $C$DW$T$37
     587                    
     588                    $C$DW$T$38      .dwtag  DW_TAG_pointer_type
     589                            .dwattr $C$DW$T$38, DW_AT_type(*$C$DW$T$37)
TI ARM Assembler PC v5.2.5 Tue May 03 10:42:10 2016

Tools Copyright (c) 1996-2015 Texas Instruments Incorporated
Task_Temp.asm                                                        PAGE   12

     590                            .dwattr $C$DW$T$38, DW_AT_address_class(0x20)
     591                    $C$DW$T$39      .dwtag  DW_TAG_typedef, DW_AT_name("TaskFunction_t")
     592                            .dwattr $C$DW$T$39, DW_AT_type(*$C$DW$T$38)
     593                            .dwattr $C$DW$T$39, DW_AT_language(DW_LANG_C)
     594                            .dwattr $C$DW$T$39, DW_AT_decl_file("C:\Users\trilu\Downloads\TI_ARM_Tiva_Projects_EECS_690_Sp
     595                            .dwattr $C$DW$T$39, DW_AT_decl_line(0x4d)
     596                            .dwattr $C$DW$T$39, DW_AT_decl_column(0x10)
     597                    $C$DW$T$72      .dwtag  DW_TAG_const_type
     598                            .dwattr $C$DW$T$72, DW_AT_type(*$C$DW$T$2)
     599                    $C$DW$T$73      .dwtag  DW_TAG_pointer_type
     600                            .dwattr $C$DW$T$73, DW_AT_type(*$C$DW$T$72)
     601                            .dwattr $C$DW$T$73, DW_AT_address_class(0x20)
     602                    $C$DW$T$74      .dwtag  DW_TAG_const_type
     603                            .dwattr $C$DW$T$74, DW_AT_type(*$C$DW$T$73)
     604                    $C$DW$T$4       .dwtag  DW_TAG_base_type
     605                            .dwattr $C$DW$T$4, DW_AT_encoding(DW_ATE_boolean)
     606                            .dwattr $C$DW$T$4, DW_AT_name("bool")
     607                            .dwattr $C$DW$T$4, DW_AT_byte_size(0x01)
     608                    $C$DW$T$5       .dwtag  DW_TAG_base_type
     609                            .dwattr $C$DW$T$5, DW_AT_encoding(DW_ATE_signed_char)
     610                            .dwattr $C$DW$T$5, DW_AT_name("signed char")
     611                            .dwattr $C$DW$T$5, DW_AT_byte_size(0x01)
     612                    $C$DW$T$75      .dwtag  DW_TAG_typedef, DW_AT_name("int8_t")
     613                            .dwattr $C$DW$T$75, DW_AT_type(*$C$DW$T$5)
     614                            .dwattr $C$DW$T$75, DW_AT_language(DW_LANG_C)
     615                            .dwattr $C$DW$T$75, DW_AT_decl_file("C:/ti/ccsv6/tools/compiler/ti-cgt-arm_5.2.5/include/stdin
     616                            .dwattr $C$DW$T$75, DW_AT_decl_line(0x2a)
     617                            .dwattr $C$DW$T$75, DW_AT_decl_column(0x1d)
     618                    $C$DW$T$76      .dwtag  DW_TAG_typedef, DW_AT_name("int_least8_t")
     619                            .dwattr $C$DW$T$76, DW_AT_type(*$C$DW$T$75)
     620                            .dwattr $C$DW$T$76, DW_AT_language(DW_LANG_C)
     621                            .dwattr $C$DW$T$76, DW_AT_decl_file("C:/ti/ccsv6/tools/compiler/ti-cgt-arm_5.2.5/include/stdin
     622                            .dwattr $C$DW$T$76, DW_AT_decl_line(0x37)
     623                            .dwattr $C$DW$T$76, DW_AT_decl_column(0x17)
     624                    $C$DW$T$6       .dwtag  DW_TAG_base_type
     625                            .dwattr $C$DW$T$6, DW_AT_encoding(DW_ATE_unsigned_char)
     626                            .dwattr $C$DW$T$6, DW_AT_name("unsigned char")
     627                            .dwattr $C$DW$T$6, DW_AT_byte_size(0x01)
     628                    $C$DW$T$19      .dwtag  DW_TAG_pointer_type
     629                            .dwattr $C$DW$T$19, DW_AT_type(*$C$DW$T$6)
     630                            .dwattr $C$DW$T$19, DW_AT_address_class(0x20)
     631                    $C$DW$T$21      .dwtag  DW_TAG_typedef, DW_AT_name("uint8_t")
     632                            .dwattr $C$DW$T$21, DW_AT_type(*$C$DW$T$6)
     633                            .dwattr $C$DW$T$21, DW_AT_language(DW_LANG_C)
     634                            .dwattr $C$DW$T$21, DW_AT_decl_file("C:/ti/ccsv6/tools/compiler/ti-cgt-arm_5.2.5/include/stdin
     635                            .dwattr $C$DW$T$21, DW_AT_decl_line(0x2b)
     636                            .dwattr $C$DW$T$21, DW_AT_decl_column(0x1c)
     637                    $C$DW$T$22      .dwtag  DW_TAG_pointer_type
     638                            .dwattr $C$DW$T$22, DW_AT_type(*$C$DW$T$21)
     639                            .dwattr $C$DW$T$22, DW_AT_address_class(0x20)
     640                    $C$DW$T$77      .dwtag  DW_TAG_typedef, DW_AT_name("portCHAR")
     641                            .dwattr $C$DW$T$77, DW_AT_type(*$C$DW$T$21)
     642                            .dwattr $C$DW$T$77, DW_AT_language(DW_LANG_C)
     643                            .dwattr $C$DW$T$77, DW_AT_decl_file("C:/Users/trilu/Downloads/TI_ARM_Tiva_Projects_EECS_690_Sp
     644                            .dwattr $C$DW$T$77, DW_AT_decl_line(0x60)
TI ARM Assembler PC v5.2.5 Tue May 03 10:42:10 2016

Tools Copyright (c) 1996-2015 Texas Instruments Incorporated
Task_Temp.asm                                                        PAGE   13

     645                            .dwattr $C$DW$T$77, DW_AT_decl_column(0x12)
     646                    $C$DW$T$78      .dwtag  DW_TAG_typedef, DW_AT_name("uint_least8_t")
     647                            .dwattr $C$DW$T$78, DW_AT_type(*$C$DW$T$21)
     648                            .dwattr $C$DW$T$78, DW_AT_language(DW_LANG_C)
     649                            .dwattr $C$DW$T$78, DW_AT_decl_file("C:/ti/ccsv6/tools/compiler/ti-cgt-arm_5.2.5/include/stdin
     650                            .dwattr $C$DW$T$78, DW_AT_decl_line(0x38)
     651                            .dwattr $C$DW$T$78, DW_AT_decl_column(0x16)
     652                    $C$DW$T$7       .dwtag  DW_TAG_base_type
     653                            .dwattr $C$DW$T$7, DW_AT_encoding(DW_ATE_signed_char)
     654                            .dwattr $C$DW$T$7, DW_AT_name("wchar_t")
     655                            .dwattr $C$DW$T$7, DW_AT_byte_size(0x02)
     656                    $C$DW$T$8       .dwtag  DW_TAG_base_type
     657                            .dwattr $C$DW$T$8, DW_AT_encoding(DW_ATE_signed)
     658                            .dwattr $C$DW$T$8, DW_AT_name("short")
     659                            .dwattr $C$DW$T$8, DW_AT_byte_size(0x02)
     660                    $C$DW$T$79      .dwtag  DW_TAG_typedef, DW_AT_name("int16_t")
     661                            .dwattr $C$DW$T$79, DW_AT_type(*$C$DW$T$8)
     662                            .dwattr $C$DW$T$79, DW_AT_language(DW_LANG_C)
     663                            .dwattr $C$DW$T$79, DW_AT_decl_file("C:/ti/ccsv6/tools/compiler/ti-cgt-arm_5.2.5/include/stdin
     664                            .dwattr $C$DW$T$79, DW_AT_decl_line(0x2c)
     665                            .dwattr $C$DW$T$79, DW_AT_decl_column(0x1d)
     666                    $C$DW$T$80      .dwtag  DW_TAG_typedef, DW_AT_name("int_least16_t")
     667                            .dwattr $C$DW$T$80, DW_AT_type(*$C$DW$T$79)
     668                            .dwattr $C$DW$T$80, DW_AT_language(DW_LANG_C)
     669                            .dwattr $C$DW$T$80, DW_AT_decl_file("C:/ti/ccsv6/tools/compiler/ti-cgt-arm_5.2.5/include/stdin
     670                            .dwattr $C$DW$T$80, DW_AT_decl_line(0x3a)
     671                            .dwattr $C$DW$T$80, DW_AT_decl_column(0x17)
     672                    $C$DW$T$81      .dwtag  DW_TAG_typedef, DW_AT_name("portSHORT")
     673                            .dwattr $C$DW$T$81, DW_AT_type(*$C$DW$T$79)
     674                            .dwattr $C$DW$T$81, DW_AT_language(DW_LANG_C)
     675                            .dwattr $C$DW$T$81, DW_AT_decl_file("C:/Users/trilu/Downloads/TI_ARM_Tiva_Projects_EECS_690_Sp
     676                            .dwattr $C$DW$T$81, DW_AT_decl_line(0x64)
     677                            .dwattr $C$DW$T$81, DW_AT_decl_column(0x12)
     678                    $C$DW$T$9       .dwtag  DW_TAG_base_type
     679                            .dwattr $C$DW$T$9, DW_AT_encoding(DW_ATE_unsigned)
     680                            .dwattr $C$DW$T$9, DW_AT_name("unsigned short")
     681                            .dwattr $C$DW$T$9, DW_AT_byte_size(0x02)
     682                    $C$DW$T$82      .dwtag  DW_TAG_typedef, DW_AT_name("_Wchart")
     683                            .dwattr $C$DW$T$82, DW_AT_type(*$C$DW$T$9)
     684                            .dwattr $C$DW$T$82, DW_AT_language(DW_LANG_C)
     685                            .dwattr $C$DW$T$82, DW_AT_decl_file("C:/ti/ccsv6/tools/compiler/ti-cgt-arm_5.2.5/include/yvals
     686                            .dwattr $C$DW$T$82, DW_AT_decl_line(0x1e5)
     687                            .dwattr $C$DW$T$82, DW_AT_decl_column(0x21)
     688                    $C$DW$T$83      .dwtag  DW_TAG_typedef, DW_AT_name("_Wintt")
     689                            .dwattr $C$DW$T$83, DW_AT_type(*$C$DW$T$9)
     690                            .dwattr $C$DW$T$83, DW_AT_language(DW_LANG_C)
     691                            .dwattr $C$DW$T$83, DW_AT_decl_file("C:/ti/ccsv6/tools/compiler/ti-cgt-arm_5.2.5/include/yvals
     692                            .dwattr $C$DW$T$83, DW_AT_decl_line(0x1e6)
     693                            .dwattr $C$DW$T$83, DW_AT_decl_column(0x21)
     694                    $C$DW$T$44      .dwtag  DW_TAG_typedef, DW_AT_name("uint16_t")
     695                            .dwattr $C$DW$T$44, DW_AT_type(*$C$DW$T$9)
     696                            .dwattr $C$DW$T$44, DW_AT_language(DW_LANG_C)
     697                            .dwattr $C$DW$T$44, DW_AT_decl_file("C:/ti/ccsv6/tools/compiler/ti-cgt-arm_5.2.5/include/stdin
     698                            .dwattr $C$DW$T$44, DW_AT_decl_line(0x2d)
     699                            .dwattr $C$DW$T$44, DW_AT_decl_column(0x1c)
TI ARM Assembler PC v5.2.5 Tue May 03 10:42:10 2016

Tools Copyright (c) 1996-2015 Texas Instruments Incorporated
Task_Temp.asm                                                        PAGE   14

     700                    $C$DW$T$84      .dwtag  DW_TAG_typedef, DW_AT_name("uint_least16_t")
     701                            .dwattr $C$DW$T$84, DW_AT_type(*$C$DW$T$44)
     702                            .dwattr $C$DW$T$84, DW_AT_language(DW_LANG_C)
     703                            .dwattr $C$DW$T$84, DW_AT_decl_file("C:/ti/ccsv6/tools/compiler/ti-cgt-arm_5.2.5/include/stdin
     704                            .dwattr $C$DW$T$84, DW_AT_decl_line(0x3b)
     705                            .dwattr $C$DW$T$84, DW_AT_decl_column(0x16)
     706                    $C$DW$T$85      .dwtag  DW_TAG_typedef, DW_AT_name("wchar_t")
     707                            .dwattr $C$DW$T$85, DW_AT_type(*$C$DW$T$9)
     708                            .dwattr $C$DW$T$85, DW_AT_language(DW_LANG_C)
     709                            .dwattr $C$DW$T$85, DW_AT_decl_file("C:/ti/ccsv6/tools/compiler/ti-cgt-arm_5.2.5/include/stdde
     710                            .dwattr $C$DW$T$85, DW_AT_decl_line(0x41)
     711                            .dwattr $C$DW$T$85, DW_AT_decl_column(0x1a)
     712                    $C$DW$T$10      .dwtag  DW_TAG_base_type
     713                            .dwattr $C$DW$T$10, DW_AT_encoding(DW_ATE_signed)
     714                            .dwattr $C$DW$T$10, DW_AT_name("int")
     715                            .dwattr $C$DW$T$10, DW_AT_byte_size(0x04)
     716                    $C$DW$T$86      .dwtag  DW_TAG_typedef, DW_AT_name("_Ptrdifft")
     717                            .dwattr $C$DW$T$86, DW_AT_type(*$C$DW$T$10)
     718                            .dwattr $C$DW$T$86, DW_AT_language(DW_LANG_C)
     719                            .dwattr $C$DW$T$86, DW_AT_decl_file("C:/ti/ccsv6/tools/compiler/ti-cgt-arm_5.2.5/include/yvals
     720                            .dwattr $C$DW$T$86, DW_AT_decl_line(0xa9)
     721                            .dwattr $C$DW$T$86, DW_AT_decl_column(0x1e)
     722                    $C$DW$T$54      .dwtag  DW_TAG_typedef, DW_AT_name("int32_t")
     723                            .dwattr $C$DW$T$54, DW_AT_type(*$C$DW$T$10)
     724                            .dwattr $C$DW$T$54, DW_AT_language(DW_LANG_C)
     725                            .dwattr $C$DW$T$54, DW_AT_decl_file("C:/ti/ccsv6/tools/compiler/ti-cgt-arm_5.2.5/include/stdin
     726                            .dwattr $C$DW$T$54, DW_AT_decl_line(0x2e)
     727                            .dwattr $C$DW$T$54, DW_AT_decl_column(0x1d)
     728                    $C$DW$T$55      .dwtag  DW_TAG_typedef, DW_AT_name("BaseType_t")
     729                            .dwattr $C$DW$T$55, DW_AT_type(*$C$DW$T$54)
     730                            .dwattr $C$DW$T$55, DW_AT_language(DW_LANG_C)
     731                            .dwattr $C$DW$T$55, DW_AT_decl_file("C:/Users/trilu/Downloads/TI_ARM_Tiva_Projects_EECS_690_Sp
     732                            .dwattr $C$DW$T$55, DW_AT_decl_line(0x69)
     733                            .dwattr $C$DW$T$55, DW_AT_decl_column(0x12)
     734                    $C$DW$T$87      .dwtag  DW_TAG_const_type
     735                            .dwattr $C$DW$T$87, DW_AT_type(*$C$DW$T$55)
     736                    
     737                    $C$DW$T$92      .dwtag  DW_TAG_subroutine_type
     738                            .dwattr $C$DW$T$92, DW_AT_type(*$C$DW$T$55)
     739                            .dwattr $C$DW$T$92, DW_AT_language(DW_LANG_C)
     740                    $C$DW$58        .dwtag  DW_TAG_formal_parameter
     741                            .dwattr $C$DW$58, DW_AT_type(*$C$DW$T$3)
     742                            .dwendtag $C$DW$T$92
     743                    
     744                    $C$DW$T$93      .dwtag  DW_TAG_pointer_type
     745                            .dwattr $C$DW$T$93, DW_AT_type(*$C$DW$T$92)
     746                            .dwattr $C$DW$T$93, DW_AT_address_class(0x20)
     747                    $C$DW$T$94      .dwtag  DW_TAG_typedef, DW_AT_name("TaskHookFunction_t")
     748                            .dwattr $C$DW$T$94, DW_AT_type(*$C$DW$T$93)
     749                            .dwattr $C$DW$T$94, DW_AT_language(DW_LANG_C)
     750                            .dwattr $C$DW$T$94, DW_AT_decl_file("C:/Users/trilu/Downloads/TI_ARM_Tiva_Projects_EECS_690_Sp
     751                            .dwattr $C$DW$T$94, DW_AT_decl_line(0x6d)
     752                            .dwattr $C$DW$T$94, DW_AT_decl_column(0x16)
     753                    $C$DW$T$95      .dwtag  DW_TAG_typedef, DW_AT_name("int_fast16_t")
     754                            .dwattr $C$DW$T$95, DW_AT_type(*$C$DW$T$54)
TI ARM Assembler PC v5.2.5 Tue May 03 10:42:10 2016

Tools Copyright (c) 1996-2015 Texas Instruments Incorporated
Task_Temp.asm                                                        PAGE   15

     755                            .dwattr $C$DW$T$95, DW_AT_language(DW_LANG_C)
     756                            .dwattr $C$DW$T$95, DW_AT_decl_file("C:/ti/ccsv6/tools/compiler/ti-cgt-arm_5.2.5/include/stdin
     757                            .dwattr $C$DW$T$95, DW_AT_decl_line(0x47)
     758                            .dwattr $C$DW$T$95, DW_AT_decl_column(0x17)
     759                    $C$DW$T$96      .dwtag  DW_TAG_typedef, DW_AT_name("int_fast32_t")
     760                            .dwattr $C$DW$T$96, DW_AT_type(*$C$DW$T$54)
     761                            .dwattr $C$DW$T$96, DW_AT_language(DW_LANG_C)
     762                            .dwattr $C$DW$T$96, DW_AT_decl_file("C:/ti/ccsv6/tools/compiler/ti-cgt-arm_5.2.5/include/stdin
     763                            .dwattr $C$DW$T$96, DW_AT_decl_line(0x4a)
     764                            .dwattr $C$DW$T$96, DW_AT_decl_column(0x17)
     765                    $C$DW$T$97      .dwtag  DW_TAG_typedef, DW_AT_name("int_fast8_t")
     766                            .dwattr $C$DW$T$97, DW_AT_type(*$C$DW$T$54)
     767                            .dwattr $C$DW$T$97, DW_AT_language(DW_LANG_C)
     768                            .dwattr $C$DW$T$97, DW_AT_decl_file("C:/ti/ccsv6/tools/compiler/ti-cgt-arm_5.2.5/include/stdin
     769                            .dwattr $C$DW$T$97, DW_AT_decl_line(0x45)
     770                            .dwattr $C$DW$T$97, DW_AT_decl_column(0x17)
     771                    $C$DW$T$98      .dwtag  DW_TAG_typedef, DW_AT_name("int_least32_t")
     772                            .dwattr $C$DW$T$98, DW_AT_type(*$C$DW$T$54)
     773                            .dwattr $C$DW$T$98, DW_AT_language(DW_LANG_C)
     774                            .dwattr $C$DW$T$98, DW_AT_decl_file("C:/ti/ccsv6/tools/compiler/ti-cgt-arm_5.2.5/include/stdin
     775                            .dwattr $C$DW$T$98, DW_AT_decl_line(0x3c)
     776                            .dwattr $C$DW$T$98, DW_AT_decl_column(0x17)
     777                    $C$DW$T$99      .dwtag  DW_TAG_typedef, DW_AT_name("portBASE_TYPE")
     778                            .dwattr $C$DW$T$99, DW_AT_type(*$C$DW$T$54)
     779                            .dwattr $C$DW$T$99, DW_AT_language(DW_LANG_C)
     780                            .dwattr $C$DW$T$99, DW_AT_decl_file("C:/Users/trilu/Downloads/TI_ARM_Tiva_Projects_EECS_690_Sp
     781                            .dwattr $C$DW$T$99, DW_AT_decl_line(0x66)
     782                            .dwattr $C$DW$T$99, DW_AT_decl_column(0x12)
     783                    $C$DW$T$100     .dwtag  DW_TAG_typedef, DW_AT_name("portLONG")
     784                            .dwattr $C$DW$T$100, DW_AT_type(*$C$DW$T$54)
     785                            .dwattr $C$DW$T$100, DW_AT_language(DW_LANG_C)
     786                            .dwattr $C$DW$T$100, DW_AT_decl_file("C:/Users/trilu/Downloads/TI_ARM_Tiva_Projects_EECS_690_S
     787                            .dwattr $C$DW$T$100, DW_AT_decl_line(0x63)
     788                            .dwattr $C$DW$T$100, DW_AT_decl_column(0x12)
     789                    $C$DW$T$101     .dwtag  DW_TAG_typedef, DW_AT_name("intptr_t")
     790                            .dwattr $C$DW$T$101, DW_AT_type(*$C$DW$T$10)
     791                            .dwattr $C$DW$T$101, DW_AT_language(DW_LANG_C)
     792                            .dwattr $C$DW$T$101, DW_AT_decl_file("C:/ti/ccsv6/tools/compiler/ti-cgt-arm_5.2.5/include/stdi
     793                            .dwattr $C$DW$T$101, DW_AT_decl_line(0x52)
     794                            .dwattr $C$DW$T$101, DW_AT_decl_column(0x1a)
     795                    $C$DW$T$102     .dwtag  DW_TAG_typedef, DW_AT_name("ptrdiff_t")
     796                            .dwattr $C$DW$T$102, DW_AT_type(*$C$DW$T$10)
     797                            .dwattr $C$DW$T$102, DW_AT_language(DW_LANG_C)
     798                            .dwattr $C$DW$T$102, DW_AT_decl_file("C:/ti/ccsv6/tools/compiler/ti-cgt-arm_5.2.5/include/stdd
     799                            .dwattr $C$DW$T$102, DW_AT_decl_line(0x36)
     800                            .dwattr $C$DW$T$102, DW_AT_decl_column(0x1c)
     801                    $C$DW$T$11      .dwtag  DW_TAG_base_type
     802                            .dwattr $C$DW$T$11, DW_AT_encoding(DW_ATE_unsigned)
     803                            .dwattr $C$DW$T$11, DW_AT_name("unsigned int")
     804                            .dwattr $C$DW$T$11, DW_AT_byte_size(0x04)
     805                    $C$DW$T$103     .dwtag  DW_TAG_typedef, DW_AT_name("_Sizet")
     806                            .dwattr $C$DW$T$103, DW_AT_type(*$C$DW$T$11)
     807                            .dwattr $C$DW$T$103, DW_AT_language(DW_LANG_C)
     808                            .dwattr $C$DW$T$103, DW_AT_decl_file("C:/ti/ccsv6/tools/compiler/ti-cgt-arm_5.2.5/include/yval
     809                            .dwattr $C$DW$T$103, DW_AT_decl_line(0xab)
TI ARM Assembler PC v5.2.5 Tue May 03 10:42:10 2016

Tools Copyright (c) 1996-2015 Texas Instruments Incorporated
Task_Temp.asm                                                        PAGE   16

     810                            .dwattr $C$DW$T$103, DW_AT_decl_column(0x1a)
     811                    $C$DW$T$23      .dwtag  DW_TAG_typedef, DW_AT_name("size_t")
     812                            .dwattr $C$DW$T$23, DW_AT_type(*$C$DW$T$11)
     813                            .dwattr $C$DW$T$23, DW_AT_language(DW_LANG_C)
     814                            .dwattr $C$DW$T$23, DW_AT_decl_file("C:/ti/ccsv6/tools/compiler/ti-cgt-arm_5.2.5/include/stdde
     815                            .dwattr $C$DW$T$23, DW_AT_decl_line(0x3a)
     816                            .dwattr $C$DW$T$23, DW_AT_decl_column(0x19)
     817                    $C$DW$T$26      .dwtag  DW_TAG_typedef, DW_AT_name("uint32_t")
     818                            .dwattr $C$DW$T$26, DW_AT_type(*$C$DW$T$11)
     819                            .dwattr $C$DW$T$26, DW_AT_language(DW_LANG_C)
     820                            .dwattr $C$DW$T$26, DW_AT_decl_file("C:/ti/ccsv6/tools/compiler/ti-cgt-arm_5.2.5/include/stdin
     821                            .dwattr $C$DW$T$26, DW_AT_decl_line(0x2f)
     822                            .dwattr $C$DW$T$26, DW_AT_decl_column(0x1c)
     823                    $C$DW$T$45      .dwtag  DW_TAG_typedef, DW_AT_name("StackType_t")
     824                            .dwattr $C$DW$T$45, DW_AT_type(*$C$DW$T$26)
     825                            .dwattr $C$DW$T$45, DW_AT_language(DW_LANG_C)
     826                            .dwattr $C$DW$T$45, DW_AT_decl_file("C:/Users/trilu/Downloads/TI_ARM_Tiva_Projects_EECS_690_Sp
     827                            .dwattr $C$DW$T$45, DW_AT_decl_line(0x68)
     828                            .dwattr $C$DW$T$45, DW_AT_decl_column(0x12)
     829                    $C$DW$T$46      .dwtag  DW_TAG_pointer_type
     830                            .dwattr $C$DW$T$46, DW_AT_type(*$C$DW$T$45)
     831                            .dwattr $C$DW$T$46, DW_AT_address_class(0x20)
     832                    $C$DW$T$32      .dwtag  DW_TAG_typedef, DW_AT_name("TickType_t")
     833                            .dwattr $C$DW$T$32, DW_AT_type(*$C$DW$T$26)
     834                            .dwattr $C$DW$T$32, DW_AT_language(DW_LANG_C)
     835                            .dwattr $C$DW$T$32, DW_AT_decl_file("C:/Users/trilu/Downloads/TI_ARM_Tiva_Projects_EECS_690_Sp
     836                            .dwattr $C$DW$T$32, DW_AT_decl_line(0x70)
     837                            .dwattr $C$DW$T$32, DW_AT_decl_column(0x13)
     838                    $C$DW$T$69      .dwtag  DW_TAG_const_type
     839                            .dwattr $C$DW$T$69, DW_AT_type(*$C$DW$T$32)
     840                    $C$DW$T$27      .dwtag  DW_TAG_typedef, DW_AT_name("UBaseType_t")
     841                            .dwattr $C$DW$T$27, DW_AT_type(*$C$DW$T$26)
     842                            .dwattr $C$DW$T$27, DW_AT_language(DW_LANG_C)
     843                            .dwattr $C$DW$T$27, DW_AT_decl_file("C:/Users/trilu/Downloads/TI_ARM_Tiva_Projects_EECS_690_Sp
     844                            .dwattr $C$DW$T$27, DW_AT_decl_line(0x6a)
     845                            .dwattr $C$DW$T$27, DW_AT_decl_column(0x12)
     846                    $C$DW$T$105     .dwtag  DW_TAG_typedef, DW_AT_name("portSTACK_TYPE")
     847                            .dwattr $C$DW$T$105, DW_AT_type(*$C$DW$T$26)
     848                            .dwattr $C$DW$T$105, DW_AT_language(DW_LANG_C)
     849                            .dwattr $C$DW$T$105, DW_AT_decl_file("C:/Users/trilu/Downloads/TI_ARM_Tiva_Projects_EECS_690_S
     850                            .dwattr $C$DW$T$105, DW_AT_decl_line(0x65)
     851                            .dwattr $C$DW$T$105, DW_AT_decl_column(0x12)
     852                    $C$DW$T$106     .dwtag  DW_TAG_typedef, DW_AT_name("uint_fast16_t")
     853                            .dwattr $C$DW$T$106, DW_AT_type(*$C$DW$T$26)
     854                            .dwattr $C$DW$T$106, DW_AT_language(DW_LANG_C)
     855                            .dwattr $C$DW$T$106, DW_AT_decl_file("C:/ti/ccsv6/tools/compiler/ti-cgt-arm_5.2.5/include/stdi
     856                            .dwattr $C$DW$T$106, DW_AT_decl_line(0x48)
     857                            .dwattr $C$DW$T$106, DW_AT_decl_column(0x16)
     858                    $C$DW$T$107     .dwtag  DW_TAG_typedef, DW_AT_name("uint_fast32_t")
     859                            .dwattr $C$DW$T$107, DW_AT_type(*$C$DW$T$26)
     860                            .dwattr $C$DW$T$107, DW_AT_language(DW_LANG_C)
     861                            .dwattr $C$DW$T$107, DW_AT_decl_file("C:/ti/ccsv6/tools/compiler/ti-cgt-arm_5.2.5/include/stdi
     862                            .dwattr $C$DW$T$107, DW_AT_decl_line(0x4b)
     863                            .dwattr $C$DW$T$107, DW_AT_decl_column(0x16)
     864                    $C$DW$T$108     .dwtag  DW_TAG_typedef, DW_AT_name("uint_fast8_t")
TI ARM Assembler PC v5.2.5 Tue May 03 10:42:10 2016

Tools Copyright (c) 1996-2015 Texas Instruments Incorporated
Task_Temp.asm                                                        PAGE   17

     865                            .dwattr $C$DW$T$108, DW_AT_type(*$C$DW$T$26)
     866                            .dwattr $C$DW$T$108, DW_AT_language(DW_LANG_C)
     867                            .dwattr $C$DW$T$108, DW_AT_decl_file("C:/ti/ccsv6/tools/compiler/ti-cgt-arm_5.2.5/include/stdi
     868                            .dwattr $C$DW$T$108, DW_AT_decl_line(0x46)
     869                            .dwattr $C$DW$T$108, DW_AT_decl_column(0x16)
     870                    $C$DW$T$109     .dwtag  DW_TAG_typedef, DW_AT_name("uint_least32_t")
     871                            .dwattr $C$DW$T$109, DW_AT_type(*$C$DW$T$26)
     872                            .dwattr $C$DW$T$109, DW_AT_language(DW_LANG_C)
     873                            .dwattr $C$DW$T$109, DW_AT_decl_file("C:/ti/ccsv6/tools/compiler/ti-cgt-arm_5.2.5/include/stdi
     874                            .dwattr $C$DW$T$109, DW_AT_decl_line(0x3d)
     875                            .dwattr $C$DW$T$109, DW_AT_decl_column(0x16)
     876                    $C$DW$T$110     .dwtag  DW_TAG_typedef, DW_AT_name("uintptr_t")
     877                            .dwattr $C$DW$T$110, DW_AT_type(*$C$DW$T$11)
     878                            .dwattr $C$DW$T$110, DW_AT_language(DW_LANG_C)
     879                            .dwattr $C$DW$T$110, DW_AT_decl_file("C:/ti/ccsv6/tools/compiler/ti-cgt-arm_5.2.5/include/stdi
     880                            .dwattr $C$DW$T$110, DW_AT_decl_line(0x53)
     881                            .dwattr $C$DW$T$110, DW_AT_decl_column(0x1a)
     882                    $C$DW$T$12      .dwtag  DW_TAG_base_type
     883                            .dwattr $C$DW$T$12, DW_AT_encoding(DW_ATE_signed)
     884                            .dwattr $C$DW$T$12, DW_AT_name("long")
     885                            .dwattr $C$DW$T$12, DW_AT_byte_size(0x04)
     886                    $C$DW$T$111     .dwtag  DW_TAG_typedef, DW_AT_name("_Int32t")
     887                            .dwattr $C$DW$T$111, DW_AT_type(*$C$DW$T$12)
     888                            .dwattr $C$DW$T$111, DW_AT_language(DW_LANG_C)
     889                            .dwattr $C$DW$T$111, DW_AT_decl_file("C:/ti/ccsv6/tools/compiler/ti-cgt-arm_5.2.5/include/yval
     890                            .dwattr $C$DW$T$111, DW_AT_decl_line(0xa6)
     891                            .dwattr $C$DW$T$111, DW_AT_decl_column(0x0e)
     892                    $C$DW$T$112     .dwtag  DW_TAG_typedef, DW_AT_name("fpos_t")
     893                            .dwattr $C$DW$T$112, DW_AT_type(*$C$DW$T$12)
     894                            .dwattr $C$DW$T$112, DW_AT_language(DW_LANG_C)
     895                            .dwattr $C$DW$T$112, DW_AT_decl_file("C:/ti/ccsv6/tools/compiler/ti-cgt-arm_5.2.5/include/stdi
     896                            .dwattr $C$DW$T$112, DW_AT_decl_line(0x6e)
     897                            .dwattr $C$DW$T$112, DW_AT_decl_column(0x0e)
     898                    $C$DW$T$13      .dwtag  DW_TAG_base_type
     899                            .dwattr $C$DW$T$13, DW_AT_encoding(DW_ATE_unsigned)
     900                            .dwattr $C$DW$T$13, DW_AT_name("unsigned long")
     901                            .dwattr $C$DW$T$13, DW_AT_byte_size(0x04)
     902                    $C$DW$T$113     .dwtag  DW_TAG_typedef, DW_AT_name("_Uint32t")
     903                            .dwattr $C$DW$T$113, DW_AT_type(*$C$DW$T$13)
     904                            .dwattr $C$DW$T$113, DW_AT_language(DW_LANG_C)
     905                            .dwattr $C$DW$T$113, DW_AT_decl_file("C:/ti/ccsv6/tools/compiler/ti-cgt-arm_5.2.5/include/yval
     906                            .dwattr $C$DW$T$113, DW_AT_decl_line(0xa7)
     907                            .dwattr $C$DW$T$113, DW_AT_decl_column(0x17)
     908                    $C$DW$T$14      .dwtag  DW_TAG_base_type
     909                            .dwattr $C$DW$T$14, DW_AT_encoding(DW_ATE_signed)
     910                            .dwattr $C$DW$T$14, DW_AT_name("long long")
     911                            .dwattr $C$DW$T$14, DW_AT_byte_size(0x08)
     912                    $C$DW$T$114     .dwtag  DW_TAG_typedef, DW_AT_name("_Longlong")
     913                            .dwattr $C$DW$T$114, DW_AT_type(*$C$DW$T$14)
     914                            .dwattr $C$DW$T$114, DW_AT_language(DW_LANG_C)
     915                            .dwattr $C$DW$T$114, DW_AT_decl_file("C:/ti/ccsv6/tools/compiler/ti-cgt-arm_5.2.5/include/yval
     916                            .dwattr $C$DW$T$114, DW_AT_decl_line(0x1b5)
     917                            .dwattr $C$DW$T$114, DW_AT_decl_column(0x13)
     918                    $C$DW$T$115     .dwtag  DW_TAG_typedef, DW_AT_name("int64_t")
     919                            .dwattr $C$DW$T$115, DW_AT_type(*$C$DW$T$14)
TI ARM Assembler PC v5.2.5 Tue May 03 10:42:10 2016

Tools Copyright (c) 1996-2015 Texas Instruments Incorporated
Task_Temp.asm                                                        PAGE   18

     920                            .dwattr $C$DW$T$115, DW_AT_language(DW_LANG_C)
     921                            .dwattr $C$DW$T$115, DW_AT_decl_file("C:/ti/ccsv6/tools/compiler/ti-cgt-arm_5.2.5/include/stdi
     922                            .dwattr $C$DW$T$115, DW_AT_decl_line(0x32)
     923                            .dwattr $C$DW$T$115, DW_AT_decl_column(0x21)
     924                    $C$DW$T$116     .dwtag  DW_TAG_typedef, DW_AT_name("int_fast64_t")
     925                            .dwattr $C$DW$T$116, DW_AT_type(*$C$DW$T$115)
     926                            .dwattr $C$DW$T$116, DW_AT_language(DW_LANG_C)
     927                            .dwattr $C$DW$T$116, DW_AT_decl_file("C:/ti/ccsv6/tools/compiler/ti-cgt-arm_5.2.5/include/stdi
     928                            .dwattr $C$DW$T$116, DW_AT_decl_line(0x4e)
     929                            .dwattr $C$DW$T$116, DW_AT_decl_column(0x17)
     930                    $C$DW$T$117     .dwtag  DW_TAG_typedef, DW_AT_name("int_least64_t")
     931                            .dwattr $C$DW$T$117, DW_AT_type(*$C$DW$T$115)
     932                            .dwattr $C$DW$T$117, DW_AT_language(DW_LANG_C)
     933                            .dwattr $C$DW$T$117, DW_AT_decl_file("C:/ti/ccsv6/tools/compiler/ti-cgt-arm_5.2.5/include/stdi
     934                            .dwattr $C$DW$T$117, DW_AT_decl_line(0x40)
     935                            .dwattr $C$DW$T$117, DW_AT_decl_column(0x17)
     936                    $C$DW$T$118     .dwtag  DW_TAG_typedef, DW_AT_name("portDOUBLE")
     937                            .dwattr $C$DW$T$118, DW_AT_type(*$C$DW$T$115)
     938                            .dwattr $C$DW$T$118, DW_AT_language(DW_LANG_C)
     939                            .dwattr $C$DW$T$118, DW_AT_decl_file("C:/Users/trilu/Downloads/TI_ARM_Tiva_Projects_EECS_690_S
     940                            .dwattr $C$DW$T$118, DW_AT_decl_line(0x62)
     941                            .dwattr $C$DW$T$118, DW_AT_decl_column(0x12)
     942                    $C$DW$T$119     .dwtag  DW_TAG_typedef, DW_AT_name("intmax_t")
     943                            .dwattr $C$DW$T$119, DW_AT_type(*$C$DW$T$14)
     944                            .dwattr $C$DW$T$119, DW_AT_language(DW_LANG_C)
     945                            .dwattr $C$DW$T$119, DW_AT_decl_file("C:/ti/ccsv6/tools/compiler/ti-cgt-arm_5.2.5/include/stdi
     946                            .dwattr $C$DW$T$119, DW_AT_decl_line(0x56)
     947                            .dwattr $C$DW$T$119, DW_AT_decl_column(0x20)
     948                    $C$DW$T$15      .dwtag  DW_TAG_base_type
     949                            .dwattr $C$DW$T$15, DW_AT_encoding(DW_ATE_unsigned)
     950                            .dwattr $C$DW$T$15, DW_AT_name("unsigned long long")
     951                            .dwattr $C$DW$T$15, DW_AT_byte_size(0x08)
     952                    $C$DW$T$120     .dwtag  DW_TAG_typedef, DW_AT_name("_ULonglong")
     953                            .dwattr $C$DW$T$120, DW_AT_type(*$C$DW$T$15)
     954                            .dwattr $C$DW$T$120, DW_AT_language(DW_LANG_C)
     955                            .dwattr $C$DW$T$120, DW_AT_decl_file("C:/ti/ccsv6/tools/compiler/ti-cgt-arm_5.2.5/include/yval
     956                            .dwattr $C$DW$T$120, DW_AT_decl_line(0x1b6)
     957                            .dwattr $C$DW$T$120, DW_AT_decl_column(0x14)
     958                    $C$DW$T$121     .dwtag  DW_TAG_typedef, DW_AT_name("uint64_t")
     959                            .dwattr $C$DW$T$121, DW_AT_type(*$C$DW$T$15)
     960                            .dwattr $C$DW$T$121, DW_AT_language(DW_LANG_C)
     961                            .dwattr $C$DW$T$121, DW_AT_decl_file("C:/ti/ccsv6/tools/compiler/ti-cgt-arm_5.2.5/include/stdi
     962                            .dwattr $C$DW$T$121, DW_AT_decl_line(0x33)
     963                            .dwattr $C$DW$T$121, DW_AT_decl_column(0x20)
     964                    $C$DW$T$122     .dwtag  DW_TAG_typedef, DW_AT_name("uint_fast64_t")
     965                            .dwattr $C$DW$T$122, DW_AT_type(*$C$DW$T$121)
     966                            .dwattr $C$DW$T$122, DW_AT_language(DW_LANG_C)
     967                            .dwattr $C$DW$T$122, DW_AT_decl_file("C:/ti/ccsv6/tools/compiler/ti-cgt-arm_5.2.5/include/stdi
     968                            .dwattr $C$DW$T$122, DW_AT_decl_line(0x4f)
     969                            .dwattr $C$DW$T$122, DW_AT_decl_column(0x16)
     970                    $C$DW$T$123     .dwtag  DW_TAG_typedef, DW_AT_name("uint_least64_t")
     971                            .dwattr $C$DW$T$123, DW_AT_type(*$C$DW$T$121)
     972                            .dwattr $C$DW$T$123, DW_AT_language(DW_LANG_C)
     973                            .dwattr $C$DW$T$123, DW_AT_decl_file("C:/ti/ccsv6/tools/compiler/ti-cgt-arm_5.2.5/include/stdi
     974                            .dwattr $C$DW$T$123, DW_AT_decl_line(0x41)
TI ARM Assembler PC v5.2.5 Tue May 03 10:42:10 2016

Tools Copyright (c) 1996-2015 Texas Instruments Incorporated
Task_Temp.asm                                                        PAGE   19

     975                            .dwattr $C$DW$T$123, DW_AT_decl_column(0x16)
     976                    $C$DW$T$124     .dwtag  DW_TAG_typedef, DW_AT_name("uintmax_t")
     977                            .dwattr $C$DW$T$124, DW_AT_type(*$C$DW$T$15)
     978                            .dwattr $C$DW$T$124, DW_AT_language(DW_LANG_C)
     979                            .dwattr $C$DW$T$124, DW_AT_decl_file("C:/ti/ccsv6/tools/compiler/ti-cgt-arm_5.2.5/include/stdi
     980                            .dwattr $C$DW$T$124, DW_AT_decl_line(0x57)
     981                            .dwattr $C$DW$T$124, DW_AT_decl_column(0x20)
     982                    $C$DW$T$16      .dwtag  DW_TAG_base_type
     983                            .dwattr $C$DW$T$16, DW_AT_encoding(DW_ATE_float)
     984                            .dwattr $C$DW$T$16, DW_AT_name("float")
     985                            .dwattr $C$DW$T$16, DW_AT_byte_size(0x04)
     986                    $C$DW$T$125     .dwtag  DW_TAG_typedef, DW_AT_name("portFLOAT")
     987                            .dwattr $C$DW$T$125, DW_AT_type(*$C$DW$T$16)
     988                            .dwattr $C$DW$T$125, DW_AT_language(DW_LANG_C)
     989                            .dwattr $C$DW$T$125, DW_AT_decl_file("C:/Users/trilu/Downloads/TI_ARM_Tiva_Projects_EECS_690_S
     990                            .dwattr $C$DW$T$125, DW_AT_decl_line(0x61)
     991                            .dwattr $C$DW$T$125, DW_AT_decl_column(0x10)
     992                    $C$DW$T$17      .dwtag  DW_TAG_base_type
     993                            .dwattr $C$DW$T$17, DW_AT_encoding(DW_ATE_float)
     994                            .dwattr $C$DW$T$17, DW_AT_name("double")
     995                            .dwattr $C$DW$T$17, DW_AT_byte_size(0x08)
     996                    $C$DW$T$18      .dwtag  DW_TAG_base_type
     997                            .dwattr $C$DW$T$18, DW_AT_encoding(DW_ATE_float)
     998                            .dwattr $C$DW$T$18, DW_AT_name("long double")
     999                            .dwattr $C$DW$T$18, DW_AT_byte_size(0x08)
    1000                    $C$DW$T$127     .dwtag  DW_TAG_typedef, DW_AT_name("_Sysch_t")
    1001                            .dwattr $C$DW$T$127, DW_AT_type(*$C$DW$T$6)
    1002                            .dwattr $C$DW$T$127, DW_AT_language(DW_LANG_C)
    1003                            .dwattr $C$DW$T$127, DW_AT_decl_file("C:/ti/ccsv6/tools/compiler/ti-cgt-arm_5.2.5/include/yval
    1004                            .dwattr $C$DW$T$127, DW_AT_decl_line(0x218)
    1005                            .dwattr $C$DW$T$127, DW_AT_decl_column(0x0e)
    1006                    $C$DW$T$41      .dwtag  DW_TAG_const_type
    1007                            .dwattr $C$DW$T$41, DW_AT_type(*$C$DW$T$6)
    1008                    $C$DW$T$42      .dwtag  DW_TAG_pointer_type
    1009                            .dwattr $C$DW$T$42, DW_AT_type(*$C$DW$T$41)
    1010                            .dwattr $C$DW$T$42, DW_AT_address_class(0x20)
    1011                    $C$DW$T$43      .dwtag  DW_TAG_const_type
    1012                            .dwattr $C$DW$T$43, DW_AT_type(*$C$DW$T$42)
    1013                    $C$DW$T$130     .dwtag  DW_TAG_pointer_type
    1014                            .dwattr $C$DW$T$130, DW_AT_type(*$C$DW$T$6)
    1015                            .dwattr $C$DW$T$130, DW_AT_address_class(0x20)
    1016                    $C$DW$T$131     .dwtag  DW_TAG_typedef, DW_AT_name("__builtin_va_list")
    1017                            .dwattr $C$DW$T$131, DW_AT_type(*$C$DW$T$130)
    1018                            .dwattr $C$DW$T$131, DW_AT_language(DW_LANG_C)
    1019                            .dwattr $C$DW$T$131, DW_AT_decl_file("../Tasks/Task_Temp.c")
    1020                            .dwattr $C$DW$T$131, DW_AT_decl_line(0x31)
    1021                            .dwattr $C$DW$T$131, DW_AT_decl_column(0x01)
    1022                    
    1023                    $C$DW$T$25      .dwtag  DW_TAG_structure_type
    1024                            .dwattr $C$DW$T$25, DW_AT_name("__va_list")
    1025                            .dwattr $C$DW$T$25, DW_AT_byte_size(0x04)
    1026                    $C$DW$59        .dwtag  DW_TAG_member
    1027                            .dwattr $C$DW$59, DW_AT_type(*$C$DW$T$3)
    1028                            .dwattr $C$DW$59, DW_AT_name("__ap")
    1029                            .dwattr $C$DW$59, DW_AT_TI_symbol_name("__ap")
TI ARM Assembler PC v5.2.5 Tue May 03 10:42:10 2016

Tools Copyright (c) 1996-2015 Texas Instruments Incorporated
Task_Temp.asm                                                        PAGE   20

    1030                            .dwattr $C$DW$59, DW_AT_data_member_location[DW_OP_plus_uconst 0x0]
    1031                            .dwattr $C$DW$59, DW_AT_accessibility(DW_ACCESS_public)
    1032                            .dwattr $C$DW$59, DW_AT_decl_file("C:/ti/ccsv6/tools/compiler/ti-cgt-arm_5.2.5/include/stdarg.
    1033                            .dwattr $C$DW$59, DW_AT_decl_line(0x36)
    1034                            .dwattr $C$DW$59, DW_AT_decl_column(0x0c)
    1035                            .dwendtag $C$DW$T$25
    1036                    
    1037                            .dwattr $C$DW$T$25, DW_AT_decl_file("C:/ti/ccsv6/tools/compiler/ti-cgt-arm_5.2.5/include/stdar
    1038                            .dwattr $C$DW$T$25, DW_AT_decl_line(0x35)
    1039                            .dwattr $C$DW$T$25, DW_AT_decl_column(0x10)
    1040                    $C$DW$T$132     .dwtag  DW_TAG_typedef, DW_AT_name("va_list")
    1041                            .dwattr $C$DW$T$132, DW_AT_type(*$C$DW$T$25)
    1042                            .dwattr $C$DW$T$132, DW_AT_language(DW_LANG_C)
    1043                            .dwattr $C$DW$T$132, DW_AT_decl_file("C:/ti/ccsv6/tools/compiler/ti-cgt-arm_5.2.5/include/stda
    1044                            .dwattr $C$DW$T$132, DW_AT_decl_line(0x37)
    1045                            .dwattr $C$DW$T$132, DW_AT_decl_column(0x03)
    1046                    $C$DW$T$133     .dwtag  DW_TAG_typedef, DW_AT_name("_Va_list")
    1047                            .dwattr $C$DW$T$133, DW_AT_type(*$C$DW$T$132)
    1048                            .dwattr $C$DW$T$133, DW_AT_language(DW_LANG_C)
    1049                            .dwattr $C$DW$T$133, DW_AT_decl_file("C:/ti/ccsv6/tools/compiler/ti-cgt-arm_5.2.5/include/yval
    1050                            .dwattr $C$DW$T$133, DW_AT_decl_line(0x1f6)
    1051                            .dwattr $C$DW$T$133, DW_AT_decl_column(0x17)
    1052                    
    1053                    $C$DW$T$31      .dwtag  DW_TAG_structure_type
    1054                            .dwattr $C$DW$T$31, DW_AT_name("xLIST")
    1055                            .dwattr $C$DW$T$31, DW_AT_byte_size(0x14)
    1056                    $C$DW$60        .dwtag  DW_TAG_member
    1057                            .dwattr $C$DW$60, DW_AT_type(*$C$DW$T$27)
    1058                            .dwattr $C$DW$60, DW_AT_name("uxNumberOfItems")
    1059                            .dwattr $C$DW$60, DW_AT_TI_symbol_name("uxNumberOfItems")
    1060                            .dwattr $C$DW$60, DW_AT_data_member_location[DW_OP_plus_uconst 0x0]
    1061                            .dwattr $C$DW$60, DW_AT_accessibility(DW_ACCESS_public)
    1062                            .dwattr $C$DW$60, DW_AT_decl_file("C:\Users\trilu\Downloads\TI_ARM_Tiva_Projects_EECS_690_Sp16
    1063                            .dwattr $C$DW$60, DW_AT_decl_line(0xd0)
    1064                            .dwattr $C$DW$60, DW_AT_decl_column(0x22)
    1065                    $C$DW$61        .dwtag  DW_TAG_member
    1066                            .dwattr $C$DW$61, DW_AT_type(*$C$DW$T$29)
    1067                            .dwattr $C$DW$61, DW_AT_name("pxIndex")
    1068                            .dwattr $C$DW$61, DW_AT_TI_symbol_name("pxIndex")
    1069                            .dwattr $C$DW$61, DW_AT_data_member_location[DW_OP_plus_uconst 0x4]
    1070                            .dwattr $C$DW$61, DW_AT_accessibility(DW_ACCESS_public)
    1071                            .dwattr $C$DW$61, DW_AT_decl_file("C:\Users\trilu\Downloads\TI_ARM_Tiva_Projects_EECS_690_Sp16
    1072                            .dwattr $C$DW$61, DW_AT_decl_line(0xd1)
    1073                            .dwattr $C$DW$61, DW_AT_decl_column(0x23)
    1074                    $C$DW$62        .dwtag  DW_TAG_member
    1075                            .dwattr $C$DW$62, DW_AT_type(*$C$DW$T$30)
    1076                            .dwattr $C$DW$62, DW_AT_name("xListEnd")
    1077                            .dwattr $C$DW$62, DW_AT_TI_symbol_name("xListEnd")
    1078                            .dwattr $C$DW$62, DW_AT_data_member_location[DW_OP_plus_uconst 0x8]
    1079                            .dwattr $C$DW$62, DW_AT_accessibility(DW_ACCESS_public)
    1080                            .dwattr $C$DW$62, DW_AT_decl_file("C:\Users\trilu\Downloads\TI_ARM_Tiva_Projects_EECS_690_Sp16
    1081                            .dwattr $C$DW$62, DW_AT_decl_line(0xd2)
    1082                            .dwattr $C$DW$62, DW_AT_decl_column(0x11)
    1083                            .dwendtag $C$DW$T$31
    1084                    
TI ARM Assembler PC v5.2.5 Tue May 03 10:42:10 2016

Tools Copyright (c) 1996-2015 Texas Instruments Incorporated
Task_Temp.asm                                                        PAGE   21

    1085                            .dwattr $C$DW$T$31, DW_AT_decl_file("C:\Users\trilu\Downloads\TI_ARM_Tiva_Projects_EECS_690_Sp
    1086                            .dwattr $C$DW$T$31, DW_AT_decl_line(0xcd)
    1087                            .dwattr $C$DW$T$31, DW_AT_decl_column(0x10)
    1088                    $C$DW$T$134     .dwtag  DW_TAG_typedef, DW_AT_name("List_t")
    1089                            .dwattr $C$DW$T$134, DW_AT_type(*$C$DW$T$31)
    1090                            .dwattr $C$DW$T$134, DW_AT_language(DW_LANG_C)
    1091                            .dwattr $C$DW$T$134, DW_AT_decl_file("C:\Users\trilu\Downloads\TI_ARM_Tiva_Projects_EECS_690_S
    1092                            .dwattr $C$DW$T$134, DW_AT_decl_line(0xd4)
    1093                            .dwattr $C$DW$T$134, DW_AT_decl_column(0x03)
    1094                    
    1095                    $C$DW$T$34      .dwtag  DW_TAG_structure_type
    1096                            .dwattr $C$DW$T$34, DW_AT_name("xLIST_ITEM")
    1097                            .dwattr $C$DW$T$34, DW_AT_byte_size(0x14)
    1098                    $C$DW$63        .dwtag  DW_TAG_member
    1099                            .dwattr $C$DW$63, DW_AT_type(*$C$DW$T$32)
    1100                            .dwattr $C$DW$63, DW_AT_name("xItemValue")
    1101                            .dwattr $C$DW$63, DW_AT_TI_symbol_name("xItemValue")
    1102                            .dwattr $C$DW$63, DW_AT_data_member_location[DW_OP_plus_uconst 0x0]
    1103                            .dwattr $C$DW$63, DW_AT_accessibility(DW_ACCESS_public)
    1104                            .dwattr $C$DW$63, DW_AT_decl_file("C:\Users\trilu\Downloads\TI_ARM_Tiva_Projects_EECS_690_Sp16
    1105                            .dwattr $C$DW$63, DW_AT_decl_line(0xb8)
    1106                            .dwattr $C$DW$63, DW_AT_decl_column(0x21)
    1107                    $C$DW$64        .dwtag  DW_TAG_member
    1108                            .dwattr $C$DW$64, DW_AT_type(*$C$DW$T$33)
    1109                            .dwattr $C$DW$64, DW_AT_name("pxNext")
    1110                            .dwattr $C$DW$64, DW_AT_TI_symbol_name("pxNext")
    1111                            .dwattr $C$DW$64, DW_AT_data_member_location[DW_OP_plus_uconst 0x4]
    1112                            .dwattr $C$DW$64, DW_AT_accessibility(DW_ACCESS_public)
    1113                            .dwattr $C$DW$64, DW_AT_decl_file("C:\Users\trilu\Downloads\TI_ARM_Tiva_Projects_EECS_690_Sp16
    1114                            .dwattr $C$DW$64, DW_AT_decl_line(0xb9)
    1115                            .dwattr $C$DW$64, DW_AT_decl_column(0x2a)
    1116                    $C$DW$65        .dwtag  DW_TAG_member
    1117                            .dwattr $C$DW$65, DW_AT_type(*$C$DW$T$33)
    1118                            .dwattr $C$DW$65, DW_AT_name("pxPrevious")
    1119                            .dwattr $C$DW$65, DW_AT_TI_symbol_name("pxPrevious")
    1120                            .dwattr $C$DW$65, DW_AT_data_member_location[DW_OP_plus_uconst 0x8]
    1121                            .dwattr $C$DW$65, DW_AT_accessibility(DW_ACCESS_public)
    1122                            .dwattr $C$DW$65, DW_AT_decl_file("C:\Users\trilu\Downloads\TI_ARM_Tiva_Projects_EECS_690_Sp16
    1123                            .dwattr $C$DW$65, DW_AT_decl_line(0xba)
    1124                            .dwattr $C$DW$65, DW_AT_decl_column(0x2a)
    1125                    $C$DW$66        .dwtag  DW_TAG_member
    1126                            .dwattr $C$DW$66, DW_AT_type(*$C$DW$T$3)
    1127                            .dwattr $C$DW$66, DW_AT_name("pvOwner")
    1128                            .dwattr $C$DW$66, DW_AT_TI_symbol_name("pvOwner")
    1129                            .dwattr $C$DW$66, DW_AT_data_member_location[DW_OP_plus_uconst 0xc]
    1130                            .dwattr $C$DW$66, DW_AT_accessibility(DW_ACCESS_public)
    1131                            .dwattr $C$DW$66, DW_AT_decl_file("C:\Users\trilu\Downloads\TI_ARM_Tiva_Projects_EECS_690_Sp16
    1132                            .dwattr $C$DW$66, DW_AT_decl_line(0xbb)
    1133                            .dwattr $C$DW$66, DW_AT_decl_column(0x09)
    1134                    $C$DW$67        .dwtag  DW_TAG_member
    1135                            .dwattr $C$DW$67, DW_AT_type(*$C$DW$T$3)
    1136                            .dwattr $C$DW$67, DW_AT_name("pvContainer")
    1137                            .dwattr $C$DW$67, DW_AT_TI_symbol_name("pvContainer")
    1138                            .dwattr $C$DW$67, DW_AT_data_member_location[DW_OP_plus_uconst 0x10]
    1139                            .dwattr $C$DW$67, DW_AT_accessibility(DW_ACCESS_public)
TI ARM Assembler PC v5.2.5 Tue May 03 10:42:10 2016

Tools Copyright (c) 1996-2015 Texas Instruments Incorporated
Task_Temp.asm                                                        PAGE   22

    1140                            .dwattr $C$DW$67, DW_AT_decl_file("C:\Users\trilu\Downloads\TI_ARM_Tiva_Projects_EECS_690_Sp16
    1141                            .dwattr $C$DW$67, DW_AT_decl_line(0xbc)
    1142                            .dwattr $C$DW$67, DW_AT_decl_column(0x1d)
    1143                            .dwendtag $C$DW$T$34
    1144                    
    1145                            .dwattr $C$DW$T$34, DW_AT_decl_file("C:\Users\trilu\Downloads\TI_ARM_Tiva_Projects_EECS_690_Sp
    1146                            .dwattr $C$DW$T$34, DW_AT_decl_line(0xb5)
    1147                            .dwattr $C$DW$T$34, DW_AT_decl_column(0x08)
    1148                    $C$DW$T$28      .dwtag  DW_TAG_typedef, DW_AT_name("ListItem_t")
    1149                            .dwattr $C$DW$T$28, DW_AT_type(*$C$DW$T$34)
    1150                            .dwattr $C$DW$T$28, DW_AT_language(DW_LANG_C)
    1151                            .dwattr $C$DW$T$28, DW_AT_decl_file("C:\Users\trilu\Downloads\TI_ARM_Tiva_Projects_EECS_690_Sp
    1152                            .dwattr $C$DW$T$28, DW_AT_decl_line(0xbf)
    1153                            .dwattr $C$DW$T$28, DW_AT_decl_column(0x1b)
    1154                    $C$DW$T$29      .dwtag  DW_TAG_pointer_type
    1155                            .dwattr $C$DW$T$29, DW_AT_type(*$C$DW$T$28)
    1156                            .dwattr $C$DW$T$29, DW_AT_address_class(0x20)
    1157                    $C$DW$T$33      .dwtag  DW_TAG_pointer_type
    1158                            .dwattr $C$DW$T$33, DW_AT_type(*$C$DW$T$34)
    1159                            .dwattr $C$DW$T$33, DW_AT_address_class(0x20)
    1160                    
    1161                    $C$DW$T$35      .dwtag  DW_TAG_structure_type
    1162                            .dwattr $C$DW$T$35, DW_AT_name("xMEMORY_REGION")
    1163                            .dwattr $C$DW$T$35, DW_AT_byte_size(0x0c)
    1164                    $C$DW$68        .dwtag  DW_TAG_member
    1165                            .dwattr $C$DW$68, DW_AT_type(*$C$DW$T$3)
    1166                            .dwattr $C$DW$68, DW_AT_name("pvBaseAddress")
    1167                            .dwattr $C$DW$68, DW_AT_TI_symbol_name("pvBaseAddress")
    1168                            .dwattr $C$DW$68, DW_AT_data_member_location[DW_OP_plus_uconst 0x0]
    1169                            .dwattr $C$DW$68, DW_AT_accessibility(DW_ACCESS_public)
    1170                            .dwattr $C$DW$68, DW_AT_decl_file("C:/Users/trilu/Downloads/TI_ARM_Tiva_Projects_EECS_690_Sp16
    1171                            .dwattr $C$DW$68, DW_AT_decl_line(0x91)
    1172                            .dwattr $C$DW$68, DW_AT_decl_column(0x08)
    1173                    $C$DW$69        .dwtag  DW_TAG_member
    1174                            .dwattr $C$DW$69, DW_AT_type(*$C$DW$T$26)
    1175                            .dwattr $C$DW$69, DW_AT_name("ulLengthInBytes")
    1176                            .dwattr $C$DW$69, DW_AT_TI_symbol_name("ulLengthInBytes")
    1177                            .dwattr $C$DW$69, DW_AT_data_member_location[DW_OP_plus_uconst 0x4]
    1178                            .dwattr $C$DW$69, DW_AT_accessibility(DW_ACCESS_public)
    1179                            .dwattr $C$DW$69, DW_AT_decl_file("C:/Users/trilu/Downloads/TI_ARM_Tiva_Projects_EECS_690_Sp16
    1180                            .dwattr $C$DW$69, DW_AT_decl_line(0x92)
    1181                            .dwattr $C$DW$69, DW_AT_decl_column(0x0b)
    1182                    $C$DW$70        .dwtag  DW_TAG_member
    1183                            .dwattr $C$DW$70, DW_AT_type(*$C$DW$T$26)
    1184                            .dwattr $C$DW$70, DW_AT_name("ulParameters")
    1185                            .dwattr $C$DW$70, DW_AT_TI_symbol_name("ulParameters")
    1186                            .dwattr $C$DW$70, DW_AT_data_member_location[DW_OP_plus_uconst 0x8]
    1187                            .dwattr $C$DW$70, DW_AT_accessibility(DW_ACCESS_public)
    1188                            .dwattr $C$DW$70, DW_AT_decl_file("C:/Users/trilu/Downloads/TI_ARM_Tiva_Projects_EECS_690_Sp16
    1189                            .dwattr $C$DW$70, DW_AT_decl_line(0x93)
    1190                            .dwattr $C$DW$70, DW_AT_decl_column(0x0b)
    1191                            .dwendtag $C$DW$T$35
    1192                    
    1193                            .dwattr $C$DW$T$35, DW_AT_decl_file("C:/Users/trilu/Downloads/TI_ARM_Tiva_Projects_EECS_690_Sp
    1194                            .dwattr $C$DW$T$35, DW_AT_decl_line(0x8f)
TI ARM Assembler PC v5.2.5 Tue May 03 10:42:10 2016

Tools Copyright (c) 1996-2015 Texas Instruments Incorporated
Task_Temp.asm                                                        PAGE   23

    1195                            .dwattr $C$DW$T$35, DW_AT_decl_column(0x10)
    1196                    $C$DW$T$47      .dwtag  DW_TAG_typedef, DW_AT_name("MemoryRegion_t")
    1197                            .dwattr $C$DW$T$47, DW_AT_type(*$C$DW$T$35)
    1198                            .dwattr $C$DW$T$47, DW_AT_language(DW_LANG_C)
    1199                            .dwattr $C$DW$T$47, DW_AT_decl_file("C:/Users/trilu/Downloads/TI_ARM_Tiva_Projects_EECS_690_Sp
    1200                            .dwattr $C$DW$T$47, DW_AT_decl_line(0x94)
    1201                            .dwattr $C$DW$T$47, DW_AT_decl_column(0x03)
    1202                    
    1203                    $C$DW$T$48      .dwtag  DW_TAG_array_type
    1204                            .dwattr $C$DW$T$48, DW_AT_type(*$C$DW$T$47)
    1205                            .dwattr $C$DW$T$48, DW_AT_language(DW_LANG_C)
    1206                            .dwattr $C$DW$T$48, DW_AT_byte_size(0x0c)
    1207                    $C$DW$71        .dwtag  DW_TAG_subrange_type
    1208                            .dwattr $C$DW$71, DW_AT_upper_bound(0x00)
    1209                            .dwendtag $C$DW$T$48
    1210                    
    1211                    
    1212                    $C$DW$T$36      .dwtag  DW_TAG_structure_type
    1213                            .dwattr $C$DW$T$36, DW_AT_name("xMINI_LIST_ITEM")
    1214                            .dwattr $C$DW$T$36, DW_AT_byte_size(0x0c)
    1215                    $C$DW$72        .dwtag  DW_TAG_member
    1216                            .dwattr $C$DW$72, DW_AT_type(*$C$DW$T$32)
    1217                            .dwattr $C$DW$72, DW_AT_name("xItemValue")
    1218                            .dwattr $C$DW$72, DW_AT_TI_symbol_name("xItemValue")
    1219                            .dwattr $C$DW$72, DW_AT_data_member_location[DW_OP_plus_uconst 0x0]
    1220                            .dwattr $C$DW$72, DW_AT_accessibility(DW_ACCESS_public)
    1221                            .dwattr $C$DW$72, DW_AT_decl_file("C:\Users\trilu\Downloads\TI_ARM_Tiva_Projects_EECS_690_Sp16
    1222                            .dwattr $C$DW$72, DW_AT_decl_line(0xc4)
    1223                            .dwattr $C$DW$72, DW_AT_decl_column(0x21)
    1224                    $C$DW$73        .dwtag  DW_TAG_member
    1225                            .dwattr $C$DW$73, DW_AT_type(*$C$DW$T$33)
    1226                            .dwattr $C$DW$73, DW_AT_name("pxNext")
    1227                            .dwattr $C$DW$73, DW_AT_TI_symbol_name("pxNext")
    1228                            .dwattr $C$DW$73, DW_AT_data_member_location[DW_OP_plus_uconst 0x4]
    1229                            .dwattr $C$DW$73, DW_AT_accessibility(DW_ACCESS_public)
    1230                            .dwattr $C$DW$73, DW_AT_decl_file("C:\Users\trilu\Downloads\TI_ARM_Tiva_Projects_EECS_690_Sp16
    1231                            .dwattr $C$DW$73, DW_AT_decl_line(0xc5)
    1232                            .dwattr $C$DW$73, DW_AT_decl_column(0x2a)
    1233                    $C$DW$74        .dwtag  DW_TAG_member
    1234                            .dwattr $C$DW$74, DW_AT_type(*$C$DW$T$33)
    1235                            .dwattr $C$DW$74, DW_AT_name("pxPrevious")
    1236                            .dwattr $C$DW$74, DW_AT_TI_symbol_name("pxPrevious")
    1237                            .dwattr $C$DW$74, DW_AT_data_member_location[DW_OP_plus_uconst 0x8]
    1238                            .dwattr $C$DW$74, DW_AT_accessibility(DW_ACCESS_public)
    1239                            .dwattr $C$DW$74, DW_AT_decl_file("C:\Users\trilu\Downloads\TI_ARM_Tiva_Projects_EECS_690_Sp16
    1240                            .dwattr $C$DW$74, DW_AT_decl_line(0xc6)
    1241                            .dwattr $C$DW$74, DW_AT_decl_column(0x2a)
    1242                            .dwendtag $C$DW$T$36
    1243                    
    1244                            .dwattr $C$DW$T$36, DW_AT_decl_file("C:\Users\trilu\Downloads\TI_ARM_Tiva_Projects_EECS_690_Sp
    1245                            .dwattr $C$DW$T$36, DW_AT_decl_line(0xc1)
    1246                            .dwattr $C$DW$T$36, DW_AT_decl_column(0x08)
    1247                    $C$DW$T$30      .dwtag  DW_TAG_typedef, DW_AT_name("MiniListItem_t")
    1248                            .dwattr $C$DW$T$30, DW_AT_type(*$C$DW$T$36)
    1249                            .dwattr $C$DW$T$30, DW_AT_language(DW_LANG_C)
TI ARM Assembler PC v5.2.5 Tue May 03 10:42:10 2016

Tools Copyright (c) 1996-2015 Texas Instruments Incorporated
Task_Temp.asm                                                        PAGE   24

    1250                            .dwattr $C$DW$T$30, DW_AT_decl_file("C:\Users\trilu\Downloads\TI_ARM_Tiva_Projects_EECS_690_Sp
    1251                            .dwattr $C$DW$T$30, DW_AT_decl_line(0xc8)
    1252                            .dwattr $C$DW$T$30, DW_AT_decl_column(0x20)
    1253                    
    1254                    $C$DW$T$49      .dwtag  DW_TAG_structure_type
    1255                            .dwattr $C$DW$T$49, DW_AT_name("xTASK_PARAMETERS")
    1256                            .dwattr $C$DW$T$49, DW_AT_byte_size(0x24)
    1257                    $C$DW$75        .dwtag  DW_TAG_member
    1258                            .dwattr $C$DW$75, DW_AT_type(*$C$DW$T$39)
    1259                            .dwattr $C$DW$75, DW_AT_name("pvTaskCode")
    1260                            .dwattr $C$DW$75, DW_AT_TI_symbol_name("pvTaskCode")
    1261                            .dwattr $C$DW$75, DW_AT_data_member_location[DW_OP_plus_uconst 0x0]
    1262                            .dwattr $C$DW$75, DW_AT_accessibility(DW_ACCESS_public)
    1263                            .dwattr $C$DW$75, DW_AT_decl_file("C:/Users/trilu/Downloads/TI_ARM_Tiva_Projects_EECS_690_Sp16
    1264                            .dwattr $C$DW$75, DW_AT_decl_line(0x9b)
    1265                            .dwattr $C$DW$75, DW_AT_decl_column(0x11)
    1266                    $C$DW$76        .dwtag  DW_TAG_member
    1267                            .dwattr $C$DW$76, DW_AT_type(*$C$DW$T$43)
    1268                            .dwattr $C$DW$76, DW_AT_name("pcName")
    1269                            .dwattr $C$DW$76, DW_AT_TI_symbol_name("pcName")
    1270                            .dwattr $C$DW$76, DW_AT_data_member_location[DW_OP_plus_uconst 0x4]
    1271                            .dwattr $C$DW$76, DW_AT_accessibility(DW_ACCESS_public)
    1272                            .dwattr $C$DW$76, DW_AT_decl_file("C:/Users/trilu/Downloads/TI_ARM_Tiva_Projects_EECS_690_Sp16
    1273                            .dwattr $C$DW$76, DW_AT_decl_line(0x9c)
    1274                            .dwattr $C$DW$76, DW_AT_decl_column(0x15)
    1275                    $C$DW$77        .dwtag  DW_TAG_member
    1276                            .dwattr $C$DW$77, DW_AT_type(*$C$DW$T$44)
    1277                            .dwattr $C$DW$77, DW_AT_name("usStackDepth")
    1278                            .dwattr $C$DW$77, DW_AT_TI_symbol_name("usStackDepth")
    1279                            .dwattr $C$DW$77, DW_AT_data_member_location[DW_OP_plus_uconst 0x8]
    1280                            .dwattr $C$DW$77, DW_AT_accessibility(DW_ACCESS_public)
    1281                            .dwattr $C$DW$77, DW_AT_decl_file("C:/Users/trilu/Downloads/TI_ARM_Tiva_Projects_EECS_690_Sp16
    1282                            .dwattr $C$DW$77, DW_AT_decl_line(0x9d)
    1283                            .dwattr $C$DW$77, DW_AT_decl_column(0x0b)
    1284                    $C$DW$78        .dwtag  DW_TAG_member
    1285                            .dwattr $C$DW$78, DW_AT_type(*$C$DW$T$3)
    1286                            .dwattr $C$DW$78, DW_AT_name("pvParameters")
    1287                            .dwattr $C$DW$78, DW_AT_TI_symbol_name("pvParameters")
    1288                            .dwattr $C$DW$78, DW_AT_data_member_location[DW_OP_plus_uconst 0xc]
    1289                            .dwattr $C$DW$78, DW_AT_accessibility(DW_ACCESS_public)
    1290                            .dwattr $C$DW$78, DW_AT_decl_file("C:/Users/trilu/Downloads/TI_ARM_Tiva_Projects_EECS_690_Sp16
    1291                            .dwattr $C$DW$78, DW_AT_decl_line(0x9e)
    1292                            .dwattr $C$DW$78, DW_AT_decl_column(0x08)
    1293                    $C$DW$79        .dwtag  DW_TAG_member
    1294                            .dwattr $C$DW$79, DW_AT_type(*$C$DW$T$27)
    1295                            .dwattr $C$DW$79, DW_AT_name("uxPriority")
    1296                            .dwattr $C$DW$79, DW_AT_TI_symbol_name("uxPriority")
    1297                            .dwattr $C$DW$79, DW_AT_data_member_location[DW_OP_plus_uconst 0x10]
    1298                            .dwattr $C$DW$79, DW_AT_accessibility(DW_ACCESS_public)
    1299                            .dwattr $C$DW$79, DW_AT_decl_file("C:/Users/trilu/Downloads/TI_ARM_Tiva_Projects_EECS_690_Sp16
    1300                            .dwattr $C$DW$79, DW_AT_decl_line(0x9f)
    1301                            .dwattr $C$DW$79, DW_AT_decl_column(0x0e)
    1302                    $C$DW$80        .dwtag  DW_TAG_member
    1303                            .dwattr $C$DW$80, DW_AT_type(*$C$DW$T$46)
    1304                            .dwattr $C$DW$80, DW_AT_name("puxStackBuffer")
TI ARM Assembler PC v5.2.5 Tue May 03 10:42:10 2016

Tools Copyright (c) 1996-2015 Texas Instruments Incorporated
Task_Temp.asm                                                        PAGE   25

    1305                            .dwattr $C$DW$80, DW_AT_TI_symbol_name("puxStackBuffer")
    1306                            .dwattr $C$DW$80, DW_AT_data_member_location[DW_OP_plus_uconst 0x14]
    1307                            .dwattr $C$DW$80, DW_AT_accessibility(DW_ACCESS_public)
    1308                            .dwattr $C$DW$80, DW_AT_decl_file("C:/Users/trilu/Downloads/TI_ARM_Tiva_Projects_EECS_690_Sp16
    1309                            .dwattr $C$DW$80, DW_AT_decl_line(0xa0)
    1310                            .dwattr $C$DW$80, DW_AT_decl_column(0x0f)
    1311                    $C$DW$81        .dwtag  DW_TAG_member
    1312                            .dwattr $C$DW$81, DW_AT_type(*$C$DW$T$48)
    1313                            .dwattr $C$DW$81, DW_AT_name("xRegions")
    1314                            .dwattr $C$DW$81, DW_AT_TI_symbol_name("xRegions")
    1315                            .dwattr $C$DW$81, DW_AT_data_member_location[DW_OP_plus_uconst 0x18]
    1316                            .dwattr $C$DW$81, DW_AT_accessibility(DW_ACCESS_public)
    1317                            .dwattr $C$DW$81, DW_AT_decl_file("C:/Users/trilu/Downloads/TI_ARM_Tiva_Projects_EECS_690_Sp16
    1318                            .dwattr $C$DW$81, DW_AT_decl_line(0xa1)
    1319                            .dwattr $C$DW$81, DW_AT_decl_column(0x11)
    1320                            .dwendtag $C$DW$T$49
    1321                    
    1322                            .dwattr $C$DW$T$49, DW_AT_decl_file("C:/Users/trilu/Downloads/TI_ARM_Tiva_Projects_EECS_690_Sp
    1323                            .dwattr $C$DW$T$49, DW_AT_decl_line(0x99)
    1324                            .dwattr $C$DW$T$49, DW_AT_decl_column(0x10)
    1325                    $C$DW$T$135     .dwtag  DW_TAG_typedef, DW_AT_name("TaskParameters_t")
    1326                            .dwattr $C$DW$T$135, DW_AT_type(*$C$DW$T$49)
    1327                            .dwattr $C$DW$T$135, DW_AT_language(DW_LANG_C)
    1328                            .dwattr $C$DW$T$135, DW_AT_decl_file("C:/Users/trilu/Downloads/TI_ARM_Tiva_Projects_EECS_690_S
    1329                            .dwattr $C$DW$T$135, DW_AT_decl_line(0xa2)
    1330                            .dwattr $C$DW$T$135, DW_AT_decl_column(0x03)
    1331                    
    1332                    $C$DW$T$53      .dwtag  DW_TAG_structure_type
    1333                            .dwattr $C$DW$T$53, DW_AT_name("xTASK_STATUS")
    1334                            .dwattr $C$DW$T$53, DW_AT_byte_size(0x20)
    1335                    $C$DW$82        .dwtag  DW_TAG_member
    1336                            .dwattr $C$DW$82, DW_AT_type(*$C$DW$T$50)
    1337                            .dwattr $C$DW$82, DW_AT_name("xHandle")
    1338                            .dwattr $C$DW$82, DW_AT_TI_symbol_name("xHandle")
    1339                            .dwattr $C$DW$82, DW_AT_data_member_location[DW_OP_plus_uconst 0x0]
    1340                            .dwattr $C$DW$82, DW_AT_accessibility(DW_ACCESS_public)
    1341                            .dwattr $C$DW$82, DW_AT_decl_file("C:/Users/trilu/Downloads/TI_ARM_Tiva_Projects_EECS_690_Sp16
    1342                            .dwattr $C$DW$82, DW_AT_decl_line(0xa8)
    1343                            .dwattr $C$DW$82, DW_AT_decl_column(0x0f)
    1344                    $C$DW$83        .dwtag  DW_TAG_member
    1345                            .dwattr $C$DW$83, DW_AT_type(*$C$DW$T$42)
    1346                            .dwattr $C$DW$83, DW_AT_name("pcTaskName")
    1347                            .dwattr $C$DW$83, DW_AT_TI_symbol_name("pcTaskName")
    1348                            .dwattr $C$DW$83, DW_AT_data_member_location[DW_OP_plus_uconst 0x4]
    1349                            .dwattr $C$DW$83, DW_AT_accessibility(DW_ACCESS_public)
    1350                            .dwattr $C$DW$83, DW_AT_decl_file("C:/Users/trilu/Downloads/TI_ARM_Tiva_Projects_EECS_690_Sp16
    1351                            .dwattr $C$DW$83, DW_AT_decl_line(0xa9)
    1352                            .dwattr $C$DW$83, DW_AT_decl_column(0x0e)
    1353                    $C$DW$84        .dwtag  DW_TAG_member
    1354                            .dwattr $C$DW$84, DW_AT_type(*$C$DW$T$27)
    1355                            .dwattr $C$DW$84, DW_AT_name("xTaskNumber")
    1356                            .dwattr $C$DW$84, DW_AT_TI_symbol_name("xTaskNumber")
    1357                            .dwattr $C$DW$84, DW_AT_data_member_location[DW_OP_plus_uconst 0x8]
    1358                            .dwattr $C$DW$84, DW_AT_accessibility(DW_ACCESS_public)
    1359                            .dwattr $C$DW$84, DW_AT_decl_file("C:/Users/trilu/Downloads/TI_ARM_Tiva_Projects_EECS_690_Sp16
TI ARM Assembler PC v5.2.5 Tue May 03 10:42:10 2016

Tools Copyright (c) 1996-2015 Texas Instruments Incorporated
Task_Temp.asm                                                        PAGE   26

    1360                            .dwattr $C$DW$84, DW_AT_decl_line(0xaa)
    1361                            .dwattr $C$DW$84, DW_AT_decl_column(0x0e)
    1362                    $C$DW$85        .dwtag  DW_TAG_member
    1363                            .dwattr $C$DW$85, DW_AT_type(*$C$DW$T$52)
    1364                            .dwattr $C$DW$85, DW_AT_name("eCurrentState")
    1365                            .dwattr $C$DW$85, DW_AT_TI_symbol_name("eCurrentState")
    1366                            .dwattr $C$DW$85, DW_AT_data_member_location[DW_OP_plus_uconst 0xc]
    1367                            .dwattr $C$DW$85, DW_AT_accessibility(DW_ACCESS_public)
    1368                            .dwattr $C$DW$85, DW_AT_decl_file("C:/Users/trilu/Downloads/TI_ARM_Tiva_Projects_EECS_690_Sp16
    1369                            .dwattr $C$DW$85, DW_AT_decl_line(0xab)
    1370                            .dwattr $C$DW$85, DW_AT_decl_column(0x0d)
    1371                    $C$DW$86        .dwtag  DW_TAG_member
    1372                            .dwattr $C$DW$86, DW_AT_type(*$C$DW$T$27)
    1373                            .dwattr $C$DW$86, DW_AT_name("uxCurrentPriority")
    1374                            .dwattr $C$DW$86, DW_AT_TI_symbol_name("uxCurrentPriority")
    1375                            .dwattr $C$DW$86, DW_AT_data_member_location[DW_OP_plus_uconst 0x10]
    1376                            .dwattr $C$DW$86, DW_AT_accessibility(DW_ACCESS_public)
    1377                            .dwattr $C$DW$86, DW_AT_decl_file("C:/Users/trilu/Downloads/TI_ARM_Tiva_Projects_EECS_690_Sp16
    1378                            .dwattr $C$DW$86, DW_AT_decl_line(0xac)
    1379                            .dwattr $C$DW$86, DW_AT_decl_column(0x0e)
    1380                    $C$DW$87        .dwtag  DW_TAG_member
    1381                            .dwattr $C$DW$87, DW_AT_type(*$C$DW$T$27)
    1382                            .dwattr $C$DW$87, DW_AT_name("uxBasePriority")
    1383                            .dwattr $C$DW$87, DW_AT_TI_symbol_name("uxBasePriority")
    1384                            .dwattr $C$DW$87, DW_AT_data_member_location[DW_OP_plus_uconst 0x14]
    1385                            .dwattr $C$DW$87, DW_AT_accessibility(DW_ACCESS_public)
    1386                            .dwattr $C$DW$87, DW_AT_decl_file("C:/Users/trilu/Downloads/TI_ARM_Tiva_Projects_EECS_690_Sp16
    1387                            .dwattr $C$DW$87, DW_AT_decl_line(0xad)
    1388                            .dwattr $C$DW$87, DW_AT_decl_column(0x0e)
    1389                    $C$DW$88        .dwtag  DW_TAG_member
    1390                            .dwattr $C$DW$88, DW_AT_type(*$C$DW$T$26)
    1391                            .dwattr $C$DW$88, DW_AT_name("ulRunTimeCounter")
    1392                            .dwattr $C$DW$88, DW_AT_TI_symbol_name("ulRunTimeCounter")
    1393                            .dwattr $C$DW$88, DW_AT_data_member_location[DW_OP_plus_uconst 0x18]
    1394                            .dwattr $C$DW$88, DW_AT_accessibility(DW_ACCESS_public)
    1395                            .dwattr $C$DW$88, DW_AT_decl_file("C:/Users/trilu/Downloads/TI_ARM_Tiva_Projects_EECS_690_Sp16
    1396                            .dwattr $C$DW$88, DW_AT_decl_line(0xae)
    1397                            .dwattr $C$DW$88, DW_AT_decl_column(0x0b)
    1398                    $C$DW$89        .dwtag  DW_TAG_member
    1399                            .dwattr $C$DW$89, DW_AT_type(*$C$DW$T$44)
    1400                            .dwattr $C$DW$89, DW_AT_name("usStackHighWaterMark")
    1401                            .dwattr $C$DW$89, DW_AT_TI_symbol_name("usStackHighWaterMark")
    1402                            .dwattr $C$DW$89, DW_AT_data_member_location[DW_OP_plus_uconst 0x1c]
    1403                            .dwattr $C$DW$89, DW_AT_accessibility(DW_ACCESS_public)
    1404                            .dwattr $C$DW$89, DW_AT_decl_file("C:/Users/trilu/Downloads/TI_ARM_Tiva_Projects_EECS_690_Sp16
    1405                            .dwattr $C$DW$89, DW_AT_decl_line(0xaf)
    1406                            .dwattr $C$DW$89, DW_AT_decl_column(0x0b)
    1407                            .dwendtag $C$DW$T$53
    1408                    
    1409                            .dwattr $C$DW$T$53, DW_AT_decl_file("C:/Users/trilu/Downloads/TI_ARM_Tiva_Projects_EECS_690_Sp
    1410                            .dwattr $C$DW$T$53, DW_AT_decl_line(0xa6)
    1411                            .dwattr $C$DW$T$53, DW_AT_decl_column(0x10)
    1412                    $C$DW$T$136     .dwtag  DW_TAG_typedef, DW_AT_name("TaskStatus_t")
    1413                            .dwattr $C$DW$T$136, DW_AT_type(*$C$DW$T$53)
    1414                            .dwattr $C$DW$T$136, DW_AT_language(DW_LANG_C)
TI ARM Assembler PC v5.2.5 Tue May 03 10:42:10 2016

Tools Copyright (c) 1996-2015 Texas Instruments Incorporated
Task_Temp.asm                                                        PAGE   27

    1415                            .dwattr $C$DW$T$136, DW_AT_decl_file("C:/Users/trilu/Downloads/TI_ARM_Tiva_Projects_EECS_690_S
    1416                            .dwattr $C$DW$T$136, DW_AT_decl_line(0xb0)
    1417                            .dwattr $C$DW$T$136, DW_AT_decl_column(0x03)
    1418                    
    1419                    $C$DW$T$56      .dwtag  DW_TAG_structure_type
    1420                            .dwattr $C$DW$T$56, DW_AT_name("xTIME_OUT")
    1421                            .dwattr $C$DW$T$56, DW_AT_byte_size(0x08)
    1422                    $C$DW$90        .dwtag  DW_TAG_member
    1423                            .dwattr $C$DW$90, DW_AT_type(*$C$DW$T$55)
    1424                            .dwattr $C$DW$90, DW_AT_name("xOverflowCount")
    1425                            .dwattr $C$DW$90, DW_AT_TI_symbol_name("xOverflowCount")
    1426                            .dwattr $C$DW$90, DW_AT_data_member_location[DW_OP_plus_uconst 0x0]
    1427                            .dwattr $C$DW$90, DW_AT_accessibility(DW_ACCESS_public)
    1428                            .dwattr $C$DW$90, DW_AT_decl_file("C:/Users/trilu/Downloads/TI_ARM_Tiva_Projects_EECS_690_Sp16
    1429                            .dwattr $C$DW$90, DW_AT_decl_line(0x88)
    1430                            .dwattr $C$DW$90, DW_AT_decl_column(0x0d)
    1431                    $C$DW$91        .dwtag  DW_TAG_member
    1432                            .dwattr $C$DW$91, DW_AT_type(*$C$DW$T$32)
    1433                            .dwattr $C$DW$91, DW_AT_name("xTimeOnEntering")
    1434                            .dwattr $C$DW$91, DW_AT_TI_symbol_name("xTimeOnEntering")
    1435                            .dwattr $C$DW$91, DW_AT_data_member_location[DW_OP_plus_uconst 0x4]
    1436                            .dwattr $C$DW$91, DW_AT_accessibility(DW_ACCESS_public)
    1437                            .dwattr $C$DW$91, DW_AT_decl_file("C:/Users/trilu/Downloads/TI_ARM_Tiva_Projects_EECS_690_Sp16
    1438                            .dwattr $C$DW$91, DW_AT_decl_line(0x89)
    1439                            .dwattr $C$DW$91, DW_AT_decl_column(0x0d)
    1440                            .dwendtag $C$DW$T$56
    1441                    
    1442                            .dwattr $C$DW$T$56, DW_AT_decl_file("C:/Users/trilu/Downloads/TI_ARM_Tiva_Projects_EECS_690_Sp
    1443                            .dwattr $C$DW$T$56, DW_AT_decl_line(0x86)
    1444                            .dwattr $C$DW$T$56, DW_AT_decl_column(0x10)
    1445                    $C$DW$T$137     .dwtag  DW_TAG_typedef, DW_AT_name("TimeOut_t")
    1446                            .dwattr $C$DW$T$137, DW_AT_type(*$C$DW$T$56)
    1447                            .dwattr $C$DW$T$137, DW_AT_language(DW_LANG_C)
    1448                            .dwattr $C$DW$T$137, DW_AT_decl_file("C:/Users/trilu/Downloads/TI_ARM_Tiva_Projects_EECS_690_S
    1449                            .dwattr $C$DW$T$137, DW_AT_decl_line(0x8a)
    1450                            .dwattr $C$DW$T$137, DW_AT_decl_column(0x03)
    1451                            .dwattr $C$DW$CU, DW_AT_language(DW_LANG_C)
    1452                    
    1453                    ;***************************************************************
    1454                    ;* DWARF CIE ENTRIES                                           *
    1455                    ;***************************************************************
    1456                    
    1457                    $C$DW$CIE       .dwcie 14
    1458                            .dwcfi  cfa_register, 13
    1459                            .dwcfi  cfa_offset, 0
    1460                            .dwcfi  undefined, 0
    1461                            .dwcfi  undefined, 1
    1462                            .dwcfi  undefined, 2
    1463                            .dwcfi  undefined, 3
    1464                            .dwcfi  same_value, 4
    1465                            .dwcfi  same_value, 5
    1466                            .dwcfi  same_value, 6
    1467                            .dwcfi  same_value, 7
    1468                            .dwcfi  same_value, 8
    1469                            .dwcfi  same_value, 9
TI ARM Assembler PC v5.2.5 Tue May 03 10:42:10 2016

Tools Copyright (c) 1996-2015 Texas Instruments Incorporated
Task_Temp.asm                                                        PAGE   28

    1470                            .dwcfi  same_value, 10
    1471                            .dwcfi  same_value, 11
    1472                            .dwcfi  undefined, 12
    1473                            .dwcfi  undefined, 13
    1474                            .dwcfi  undefined, 14
    1475                            .dwcfi  undefined, 14
    1476                            .dwcfi  undefined, 7
    1477                            .dwcfi  undefined, 64
    1478                            .dwcfi  undefined, 65
    1479                            .dwcfi  undefined, 66
    1480                            .dwcfi  undefined, 67
    1481                            .dwcfi  undefined, 68
    1482                            .dwcfi  undefined, 69
    1483                            .dwcfi  undefined, 70
    1484                            .dwcfi  undefined, 71
    1485                            .dwcfi  undefined, 72
    1486                            .dwcfi  undefined, 73
    1487                            .dwcfi  undefined, 74
    1488                            .dwcfi  undefined, 75
    1489                            .dwcfi  undefined, 76
    1490                            .dwcfi  undefined, 77
    1491                            .dwcfi  undefined, 78
    1492                            .dwcfi  undefined, 79
    1493                            .dwcfi  same_value, 80
    1494                            .dwcfi  same_value, 81
    1495                            .dwcfi  same_value, 82
    1496                            .dwcfi  same_value, 83
    1497                            .dwcfi  same_value, 84
    1498                            .dwcfi  same_value, 85
    1499                            .dwcfi  same_value, 86
    1500                            .dwcfi  same_value, 87
    1501                            .dwcfi  same_value, 88
    1502                            .dwcfi  same_value, 89
    1503                            .dwcfi  same_value, 90
    1504                            .dwcfi  same_value, 91
    1505                            .dwcfi  same_value, 92
    1506                            .dwcfi  same_value, 93
    1507                            .dwcfi  same_value, 94
    1508                            .dwcfi  same_value, 95
    1509                            .dwendentry
    1510                            .dwendtag $C$DW$CU
    1511                    

--------------------------
Thumb2 Statistics
--------------------------
Number of Thumb2 ins converted to Thumb = 0 (0%)
Number of Thumb ins in input = 41 (71%)
Number of Thumb2 ins encoded as Thumb2 = 16 (100%)
Number of Thumb2 ins converted to 2 OPND Thumb = 1


No Assembly Errors, No Assembly Warnings
