TI ARM Assembler PC v5.2.5 Mon May 02 13:42:04 2016

Tools Copyright (c) 1996-2015 Texas Instruments Incorporated
Task_Report.asm                                                      PAGE    1

       1                    ;******************************************************************************
       2                    ;* TI ARM C/C++ Codegen                                             PC v5.2.5 *
       3                    ;* Date/Time created: Mon May 02 13:42:04 2016                                *
       4                    ;******************************************************************************
       5                            .compiler_opts --abi=eabi --arm_vmrs_si_workaround=off --code_state=16 --diag_wrap=off --disab
       6 00000000                   .thumb
       7                    
       8                    $C$DW$CU        .dwtag  DW_TAG_compile_unit
       9                            .dwattr $C$DW$CU, DW_AT_name("../Tasks/Task_Report.c")
      10                            .dwattr $C$DW$CU, DW_AT_producer("TI TI ARM C/C++ Codegen PC v5.2.5 Copyright (c) 1996-2015 Te
      11                            .dwattr $C$DW$CU, DW_AT_TI_version(0x01)
      12                            .dwattr $C$DW$CU, DW_AT_comp_dir("C:\Users\trilu\workspace_eecs\FreeRTOS823_3_TM4C1294_Base_Te
      13                    
      14                    $C$DW$1 .dwtag  DW_TAG_subprogram, DW_AT_name("UARTprintf")
      15                            .dwattr $C$DW$1, DW_AT_TI_symbol_name("UARTprintf")
      16                            .dwattr $C$DW$1, DW_AT_declaration
      17                            .dwattr $C$DW$1, DW_AT_external
      18                            .dwattr $C$DW$1, DW_AT_decl_file("C:/Users/trilu/workspace_eecs/FreeRTOS823_3_TM4C1294_Base_Te
      19                            .dwattr $C$DW$1, DW_AT_decl_line(0x41)
      20                            .dwattr $C$DW$1, DW_AT_decl_column(0x0d)
      21                    $C$DW$2 .dwtag  DW_TAG_formal_parameter
      22                            .dwattr $C$DW$2, DW_AT_type(*$C$DW$T$44)
      23                    $C$DW$3 .dwtag  DW_TAG_unspecified_parameters
      24                            .dwendtag $C$DW$1
      25                    
      26                    
      27                    $C$DW$4 .dwtag  DW_TAG_subprogram, DW_AT_name("UART_Initialization")
      28                            .dwattr $C$DW$4, DW_AT_TI_symbol_name("UART_Initialization")
      29                            .dwattr $C$DW$4, DW_AT_type(*$C$DW$T$25)
      30                            .dwattr $C$DW$4, DW_AT_declaration
      31                            .dwattr $C$DW$4, DW_AT_external
      32                            .dwattr $C$DW$4, DW_AT_decl_file("C:/Users/trilu/workspace_eecs/FreeRTOS823_3_TM4C1294_Base_Te
      33                            .dwattr $C$DW$4, DW_AT_decl_line(0x29)
      34                            .dwattr $C$DW$4, DW_AT_decl_column(0x11)
      35                    
      36                    $C$DW$5 .dwtag  DW_TAG_subprogram, DW_AT_name("vTaskDelay")
      37                            .dwattr $C$DW$5, DW_AT_TI_symbol_name("vTaskDelay")
      38                            .dwattr $C$DW$5, DW_AT_declaration
      39                            .dwattr $C$DW$5, DW_AT_external
      40                            .dwattr $C$DW$5, DW_AT_decl_file("C:/Users/trilu/Downloads/TI_ARM_Tiva_Projects_EECS_690_Sp16/
      41                            .dwattr $C$DW$5, DW_AT_decl_line(0x22b)
      42                            .dwattr $C$DW$5, DW_AT_decl_column(0x06)
      43                    $C$DW$6 .dwtag  DW_TAG_formal_parameter
      44                            .dwattr $C$DW$6, DW_AT_type(*$C$DW$T$78)
      45                            .dwendtag $C$DW$5
      46                    
      47                    
      48                    $C$DW$7 .dwtag  DW_TAG_subprogram, DW_AT_name("xQueueGenericReceive")
      49                            .dwattr $C$DW$7, DW_AT_TI_symbol_name("xQueueGenericReceive")
      50                            .dwattr $C$DW$7, DW_AT_type(*$C$DW$T$57)
      51                            .dwattr $C$DW$7, DW_AT_declaration
      52                            .dwattr $C$DW$7, DW_AT_external
      53                            .dwattr $C$DW$7, DW_AT_decl_file("C:/Users/trilu/Downloads/TI_ARM_Tiva_Projects_EECS_690_Sp16/
      54                            .dwattr $C$DW$7, DW_AT_decl_line(0x391)
      55                            .dwattr $C$DW$7, DW_AT_decl_column(0x0c)
TI ARM Assembler PC v5.2.5 Mon May 02 13:42:04 2016

Tools Copyright (c) 1996-2015 Texas Instruments Incorporated
Task_Report.asm                                                      PAGE    2

      56                    $C$DW$8 .dwtag  DW_TAG_formal_parameter
      57                            .dwattr $C$DW$8, DW_AT_type(*$C$DW$T$68)
      58                    $C$DW$9 .dwtag  DW_TAG_formal_parameter
      59                            .dwattr $C$DW$9, DW_AT_type(*$C$DW$T$75)
      60                    $C$DW$10        .dwtag  DW_TAG_formal_parameter
      61                            .dwattr $C$DW$10, DW_AT_type(*$C$DW$T$34)
      62                    $C$DW$11        .dwtag  DW_TAG_formal_parameter
      63                            .dwattr $C$DW$11, DW_AT_type(*$C$DW$T$93)
      64                            .dwendtag $C$DW$7
      65                    
      66                    
      67                    $C$DW$12        .dwtag  DW_TAG_subprogram, DW_AT_name("xQueueGenericCreate")
      68                            .dwattr $C$DW$12, DW_AT_TI_symbol_name("xQueueGenericCreate")
      69                            .dwattr $C$DW$12, DW_AT_type(*$C$DW$T$68)
      70                            .dwattr $C$DW$12, DW_AT_declaration
      71                            .dwattr $C$DW$12, DW_AT_external
      72                            .dwattr $C$DW$12, DW_AT_decl_file("C:/Users/trilu/Downloads/TI_ARM_Tiva_Projects_EECS_690_Sp16
      73                            .dwattr $C$DW$12, DW_AT_decl_line(0x606)
      74                            .dwattr $C$DW$12, DW_AT_decl_column(0x0f)
      75                    $C$DW$13        .dwtag  DW_TAG_formal_parameter
      76                            .dwattr $C$DW$13, DW_AT_type(*$C$DW$T$69)
      77                    $C$DW$14        .dwtag  DW_TAG_formal_parameter
      78                            .dwattr $C$DW$14, DW_AT_type(*$C$DW$T$69)
      79                    $C$DW$15        .dwtag  DW_TAG_formal_parameter
      80                            .dwattr $C$DW$15, DW_AT_type(*$C$DW$T$70)
      81                            .dwendtag $C$DW$12
      82                    
      83                            .global ReportData_Queue
      84 00000000                   .data
      85                            .align  4
      86                            .elfsym ReportData_Queue,SYM_SIZE(4)
      87 00000000           ReportData_Queue:
      88 00000000 00000000          .bits   0,32                    ; ReportData_Queue @ 0
      89                    
      90                    $C$DW$16        .dwtag  DW_TAG_variable, DW_AT_name("ReportData_Queue")
      91                            .dwattr $C$DW$16, DW_AT_TI_symbol_name("ReportData_Queue")
      92                            .dwattr $C$DW$16, DW_AT_location[DW_OP_addr ReportData_Queue]
      93                            .dwattr $C$DW$16, DW_AT_type(*$C$DW$T$68)
      94                            .dwattr $C$DW$16, DW_AT_external
      95                            .dwattr $C$DW$16, DW_AT_decl_file("../Tasks/Task_Report.c")
      96                            .dwattr $C$DW$16, DW_AT_decl_line(0x1e)
      97                            .dwattr $C$DW$16, DW_AT_decl_column(0x16)
      98                            .global Heater_Queue
      99 00000004                   .data
     100                            .align  4
     101                            .elfsym Heater_Queue,SYM_SIZE(4)
     102 00000004           Heater_Queue:
     103 00000004 00000000          .bits   0,32                    ; Heater_Queue @ 0
     104                    
     105                    $C$DW$17        .dwtag  DW_TAG_variable, DW_AT_name("Heater_Queue")
     106                            .dwattr $C$DW$17, DW_AT_TI_symbol_name("Heater_Queue")
     107                            .dwattr $C$DW$17, DW_AT_location[DW_OP_addr Heater_Queue]
     108                            .dwattr $C$DW$17, DW_AT_type(*$C$DW$T$68)
     109                            .dwattr $C$DW$17, DW_AT_external
     110                            .dwattr $C$DW$17, DW_AT_decl_file("../Tasks/Task_Report.c")
TI ARM Assembler PC v5.2.5 Mon May 02 13:42:04 2016

Tools Copyright (c) 1996-2015 Texas Instruments Incorporated
Task_Report.asm                                                      PAGE    3

     111                            .dwattr $C$DW$17, DW_AT_decl_line(0x1f)
     112                            .dwattr $C$DW$17, DW_AT_decl_column(0x16)
     113                    $C$DW$18        .dwtag  DW_TAG_variable, DW_AT_name("rqueue_count")
     114                            .dwattr $C$DW$18, DW_AT_TI_symbol_name("rqueue_count")
     115                            .dwattr $C$DW$18, DW_AT_type(*$C$DW$T$25)
     116                            .dwattr $C$DW$18, DW_AT_declaration
     117                            .dwattr $C$DW$18, DW_AT_external
     118                            .dwattr $C$DW$18, DW_AT_decl_file("../Tasks/Task_Report.c")
     119                            .dwattr $C$DW$18, DW_AT_decl_line(0x21)
     120                            .dwattr $C$DW$18, DW_AT_decl_column(0x11)
     121                    $C$DW$19        .dwtag  DW_TAG_variable, DW_AT_name("hqueue_count")
     122                            .dwattr $C$DW$19, DW_AT_TI_symbol_name("hqueue_count")
     123                            .dwattr $C$DW$19, DW_AT_type(*$C$DW$T$25)
     124                            .dwattr $C$DW$19, DW_AT_declaration
     125                            .dwattr $C$DW$19, DW_AT_external
     126                            .dwattr $C$DW$19, DW_AT_decl_file("../Tasks/Task_Report.c")
     127                            .dwattr $C$DW$19, DW_AT_decl_line(0x22)
     128                            .dwattr $C$DW$19, DW_AT_decl_column(0x11)
     129                    ;       C:\ti\ccsv6\tools\compiler\ti-cgt-arm_5.2.5\bin\armacpia.exe -@C:\\Users\\trilu\\AppData\\Loca
     130 00000000                   .sect   ".text"
     131                            .clink
     132                            .thumbfunc Task_Report
     133 00000000                   .thumb
     134                            .global Task_Report
     135                    
     136                    $C$DW$20        .dwtag  DW_TAG_subprogram, DW_AT_name("Task_Report")
     137                            .dwattr $C$DW$20, DW_AT_low_pc(Task_Report)
     138                            .dwattr $C$DW$20, DW_AT_high_pc(0x00)
     139                            .dwattr $C$DW$20, DW_AT_TI_symbol_name("Task_Report")
     140                            .dwattr $C$DW$20, DW_AT_external
     141                            .dwattr $C$DW$20, DW_AT_TI_begin_file("../Tasks/Task_Report.c")
     142                            .dwattr $C$DW$20, DW_AT_TI_begin_line(0x24)
     143                            .dwattr $C$DW$20, DW_AT_TI_begin_column(0x0d)
     144                            .dwattr $C$DW$20, DW_AT_decl_file("../Tasks/Task_Report.c")
     145                            .dwattr $C$DW$20, DW_AT_decl_line(0x24)
     146                            .dwattr $C$DW$20, DW_AT_decl_column(0x0d)
     147                            .dwattr $C$DW$20, DW_AT_TI_max_frame_size(0x50)
     148                            .dwpsn  file "../Tasks/Task_Report.c",line 36,column 47,is_stmt,address Task_Report,isa 1
     149                    
     150                            .dwfde $C$DW$CIE, Task_Report
     151                    $C$DW$21        .dwtag  DW_TAG_formal_parameter, DW_AT_name("pvParameters")
     152                            .dwattr $C$DW$21, DW_AT_TI_symbol_name("pvParameters")
     153                            .dwattr $C$DW$21, DW_AT_type(*$C$DW$T$3)
     154                            .dwattr $C$DW$21, DW_AT_location[DW_OP_reg0]
     155                    
     156                    ;*****************************************************************************
     157                    ;* FUNCTION NAME: Task_Report                                                *
     158                    ;*                                                                           *
     159                    ;*   Regs Modified     : A1,A2,A3,A4,V1,V2,V3,V4,V9,SP,LR,SR,D0,D0_hi,D1,    *
     160                    ;*                           D1_hi,D2,D2_hi,D3,D3_hi,D4,D4_hi,D5,D5_hi,D6,   *
     161                    ;*                           D6_hi,D7,D7_hi,FPEXC,FPSCR                      *
     162                    ;*   Regs Used         : A1,A2,A3,A4,V1,V2,V3,V4,V9,SP,LR,SR,D0,D0_hi,D1,    *
     163                    ;*                           D1_hi,D2,D2_hi,D3,D3_hi,D4,D4_hi,D5,D5_hi,D6,   *
     164                    ;*                           D6_hi,D7,D7_hi,FPEXC,FPSCR                      *
     165                    ;*   Local Frame Size  : 24 Args + 32 Auto + 20 Save = 76 byte               *
TI ARM Assembler PC v5.2.5 Mon May 02 13:42:04 2016

Tools Copyright (c) 1996-2015 Texas Instruments Incorporated
Task_Report.asm                                                      PAGE    4

     166                    ;*****************************************************************************
     167 00000000           Task_Report:
     168                    ;* --------------------------------------------------------------------------*
     169                            .dwcfi  cfa_offset, 0
     170 00000000 B5F0              PUSH      {V1, V2, V3, V4, LR}  ; [DPU_3_PIPE]  ; [ORIG 16-BIT INS]
     171                            .dwcfi  cfa_offset, 20
     172                            .dwcfi  save_reg_to_mem, 14, -4
     173                            .dwcfi  save_reg_to_mem, 7, -8
     174                            .dwcfi  save_reg_to_mem, 6, -12
     175                            .dwcfi  save_reg_to_mem, 5, -16
     176                            .dwcfi  save_reg_to_mem, 4, -20
     177 00000002 0D3CF1AD          SUB       SP, SP, #60           ; [DPU_3_PIPE]  ; [KEEP 32-BIT INS]
     178                            .dwcfi  cfa_offset, 80
     179                    $C$DW$22        .dwtag  DW_TAG_variable, DW_AT_name("pvParameters")
     180                            .dwattr $C$DW$22, DW_AT_TI_symbol_name("pvParameters")
     181                            .dwattr $C$DW$22, DW_AT_type(*$C$DW$T$3)
     182                            .dwattr $C$DW$22, DW_AT_location[DW_OP_breg13 24]
     183                    $C$DW$23        .dwtag  DW_TAG_variable, DW_AT_name("report")
     184                            .dwattr $C$DW$23, DW_AT_TI_symbol_name("report")
     185                            .dwattr $C$DW$23, DW_AT_type(*$C$DW$T$66)
     186                            .dwattr $C$DW$23, DW_AT_location[DW_OP_breg13 28]
     187                    $C$DW$24        .dwtag  DW_TAG_variable, DW_AT_name("ReportQueue_Status")
     188                            .dwattr $C$DW$24, DW_AT_TI_symbol_name("ReportQueue_Status")
     189                            .dwattr $C$DW$24, DW_AT_type(*$C$DW$T$57)
     190                            .dwattr $C$DW$24, DW_AT_location[DW_OP_breg13 52]
     191 00000006 9006              STR       A1, [SP, #24]         ; [DPU_3_PIPE] |36|  ; [ORIG 16-BIT INS]
     192                            .dwpsn  file "../Tasks/Task_Report.c",line 40,column 2,is_stmt,isa 1
     193                    $C$DW$25        .dwtag  DW_TAG_TI_branch
     194                            .dwattr $C$DW$25, DW_AT_low_pc(0x00)
     195                            .dwattr $C$DW$25, DW_AT_name("UART_Initialization")
     196                            .dwattr $C$DW$25, DW_AT_TI_call
     197 00000008 FFFEF7FF!         BL        UART_Initialization   ; [DPU_3_PIPE] |40|  ; [KEEP 32-BIT INS]
     198                            ; CALL OCCURS {UART_Initialization }  ; [] |40| 
     199                            .dwpsn  file "../Tasks/Task_Report.c",line 42,column 2,is_stmt,isa 1
     200 0000000c 200A              MOVS      A1, #10               ; [DPU_3_PIPE] |42|  ; [ORIG 16-BIT INS]
     201 0000000e 2118              MOVS      A2, #24               ; [DPU_3_PIPE] |42|  ; [ORIG 16-BIT INS]
     202 00000010 2200              MOVS      A3, #0                ; [DPU_3_PIPE] |42|  ; [ORIG 16-BIT INS]
     203                    $C$DW$26        .dwtag  DW_TAG_TI_branch
     204                            .dwattr $C$DW$26, DW_AT_low_pc(0x00)
     205                            .dwattr $C$DW$26, DW_AT_name("xQueueGenericCreate")
     206                            .dwattr $C$DW$26, DW_AT_TI_call
     207 00000012 FFFEF7FF!         BL        xQueueGenericCreate   ; [DPU_3_PIPE] |42|  ; [KEEP 32-BIT INS]
     208                            ; CALL OCCURS {xQueueGenericCreate }  ; [] |42| 
     209 00000016 4921              LDR       A2, $C$CON1           ; [DPU_3_PIPE] |42|  ; [ORIG 16-BIT INS]
     210 00000018 6008              STR       A1, [A2, #0]          ; [DPU_3_PIPE] |42|  ; [ORIG 16-BIT INS]
     211                            .dwpsn  file "../Tasks/Task_Report.c",line 51,column 10,is_stmt,isa 1
     212                    ;* --------------------------------------------------------------------------*
     213                    ;*   BEGIN LOOP ||$C$L1||
     214                    ;*
     215                    ;*   Loop source line                : 51
     216                    ;*   Loop closing brace source line  : 65
     217                    ;*   Known Minimum Trip Count        : 1
     218                    ;*   Known Maximum Trip Count        : 4294967295
     219                    ;*   Known Max Trip Count Factor     : 1
     220                    ;* --------------------------------------------------------------------------*
TI ARM Assembler PC v5.2.5 Mon May 02 13:42:04 2016

Tools Copyright (c) 1996-2015 Texas Instruments Incorporated
Task_Report.asm                                                      PAGE    5

     221 0000001a           ||$C$L1||:    
     222                            .dwpsn  file "../Tasks/Task_Report.c",line 54,column 3,is_stmt,isa 1
     223 0000001a 4820              LDR       A1, $C$CON1           ; [DPU_3_PIPE] |54|  ; [ORIG 16-BIT INS]
     224 0000001c 6800              LDR       A1, [A1, #0]          ; [DPU_3_PIPE] |54|  ; [ORIG 16-BIT INS]
     225 0000001e A907              ADD       A2, SP, #28           ; [DPU_3_PIPE] |54|  ; [ORIG 16-BIT INS]
     226 00000020 220A              MOVS      A3, #10               ; [DPU_3_PIPE] |54|  ; [ORIG 16-BIT INS]
     227 00000022 2300              MOVS      A4, #0                ; [DPU_3_PIPE] |54|  ; [ORIG 16-BIT INS]
     228                    $C$DW$27        .dwtag  DW_TAG_TI_branch
     229                            .dwattr $C$DW$27, DW_AT_low_pc(0x00)
     230                            .dwattr $C$DW$27, DW_AT_name("xQueueGenericReceive")
     231                            .dwattr $C$DW$27, DW_AT_TI_call
     232 00000024 FFFEF7FF!         BL        xQueueGenericReceive  ; [DPU_3_PIPE] |54|  ; [KEEP 32-BIT INS]
     233                            ; CALL OCCURS {xQueueGenericReceive }  ; [] |54| 
     234 00000028 900D              STR       A1, [SP, #52]         ; [DPU_3_PIPE] |54|  ; [ORIG 16-BIT INS]
     235                            .dwpsn  file "../Tasks/Task_Report.c",line 55,column 3,is_stmt,isa 1
     236 0000002a 980D              LDR       A1, [SP, #52]         ; [DPU_3_PIPE] |55|  ; [ORIG 16-BIT INS]
     237 0000002c 2801              CMP       A1, #1                ; [DPU_3_PIPE] |55|  ; [ORIG 16-BIT INS]
     238 0000002e D11A              BNE       ||$C$L2||             ; [DPU_3_PIPE] |55|  ; [ORIG 16-BIT INS]
     239                            ; BRANCHCC OCCURS {||$C$L2||}    ; [] |55| 
     240                    ;* --------------------------------------------------------------------------*
     241                            .dwpsn  file "../Tasks/Task_Report.c",line 56,column 4,is_stmt,isa 1
     242 00000030 980A              LDR       A1, [SP, #40]         ; [DPU_3_PIPE] |56|  ; [ORIG 16-BIT INS]
     243                    $C$DW$28        .dwtag  DW_TAG_TI_branch
     244                            .dwattr $C$DW$28, DW_AT_low_pc(0x00)
     245                            .dwattr $C$DW$28, DW_AT_name("__aeabi_f2d")
     246                            .dwattr $C$DW$28, DW_AT_TI_call
     247 00000032 FFFEF7FF!         BL        __aeabi_f2d           ; [DPU_3_PIPE] |56|  ; [KEEP 32-BIT INS]
     248                            ; CALL OCCURS {__aeabi_f2d }     ; [] |56| 
     249 00000036 4606              MOV       V3, A1                ; [DPU_3_PIPE] |56|  ; [ORIG 16-BIT INS]
     250 00000038 980B              LDR       A1, [SP, #44]         ; [DPU_3_PIPE] |56|  ; [ORIG 16-BIT INS]
     251 0000003a 460F              MOV       V4, A2                ; [DPU_3_PIPE] |56|  ; [ORIG 16-BIT INS]
     252                    $C$DW$29        .dwtag  DW_TAG_TI_branch
     253                            .dwattr $C$DW$29, DW_AT_low_pc(0x00)
     254                            .dwattr $C$DW$29, DW_AT_name("__aeabi_f2d")
     255                            .dwattr $C$DW$29, DW_AT_TI_call
     256 0000003c FFFEF7FF!         BL        __aeabi_f2d           ; [DPU_3_PIPE] |56|  ; [KEEP 32-BIT INS]
     257                            ; CALL OCCURS {__aeabi_f2d }     ; [] |56| 
     258 00000040 4604              MOV       V1, A1                ; [DPU_3_PIPE] |56|  ; [ORIG 16-BIT INS]
     259 00000042 980C              LDR       A1, [SP, #48]         ; [DPU_3_PIPE] |56|  ; [ORIG 16-BIT INS]
     260 00000044 460D              MOV       V2, A2                ; [DPU_3_PIPE] |56|  ; [ORIG 16-BIT INS]
     261                    $C$DW$30        .dwtag  DW_TAG_TI_branch
     262                            .dwattr $C$DW$30, DW_AT_low_pc(0x00)
     263                            .dwattr $C$DW$30, DW_AT_name("__aeabi_f2d")
     264                            .dwattr $C$DW$30, DW_AT_TI_call
     265 00000046 FFFEF7FF!         BL        __aeabi_f2d           ; [DPU_3_PIPE] |56|  ; [KEEP 32-BIT INS]
     266                            ; CALL OCCURS {__aeabi_f2d }     ; [] |56| 
     267 0000004a 00C0E88D          STMIA     SP, {V3,V4}           ; [DPU_3_PIPE] |56|  ; [KEEP 32-BIT INS]
     268 0000004e AA02              ADD       A3, SP, #8            ; [DPU_3_PIPE] |56|  ; [ORIG 16-BIT INS]
     269 00000050 0030E882          STMIA     A3, {V1,V2}           ; [DPU_3_PIPE] |56|  ; [KEEP 32-BIT INS]
     270 00000054 AA04              ADD       A3, SP, #16           ; [DPU_3_PIPE] |56|  ; [ORIG 16-BIT INS]
     271 00000056 0003E882          STMIA     A3, {A1,A2}           ; [DPU_3_PIPE] |56|  ; [KEEP 32-BIT INS]
     272 0000005a 9A08              LDR       A3, [SP, #32]         ; [DPU_3_PIPE] |56|  ; [ORIG 16-BIT INS]
     273 0000005c 9B09              LDR       A4, [SP, #36]         ; [DPU_3_PIPE] |56|  ; [ORIG 16-BIT INS]
     274 0000005e 9907              LDR       A2, [SP, #28]         ; [DPU_3_PIPE] |56|  ; [ORIG 16-BIT INS]
     275 00000060 A007              ADR       A1, $C$SL1            ; [DPU_3_PIPE] |56|  ; [ORIG 16-BIT INS]
TI ARM Assembler PC v5.2.5 Mon May 02 13:42:04 2016

Tools Copyright (c) 1996-2015 Texas Instruments Incorporated
Task_Report.asm                                                      PAGE    6

     276                    $C$DW$31        .dwtag  DW_TAG_TI_branch
     277                            .dwattr $C$DW$31, DW_AT_low_pc(0x00)
     278                            .dwattr $C$DW$31, DW_AT_name("UARTprintf")
     279                            .dwattr $C$DW$31, DW_AT_TI_call
     280 00000062 FFFEF7FF!         BL        UARTprintf            ; [DPU_3_PIPE] |56|  ; [KEEP 32-BIT INS]
     281                            ; CALL OCCURS {UARTprintf }      ; [] |56| 
     282                    ;* --------------------------------------------------------------------------*
     283 00000066           ||$C$L2||:    
     284                            .dwpsn  file "../Tasks/Task_Report.c",line 58,column 3,is_stmt,isa 1
     285 00000066 490E              LDR       A2, $C$CON2           ; [DPU_3_PIPE] |58|  ; [ORIG 16-BIT INS]
     286 00000068 6808              LDR       A1, [A2, #0]          ; [DPU_3_PIPE] |58|  ; [ORIG 16-BIT INS]
     287 0000006a 1E40              SUBS      A1, A1, #1            ; [DPU_3_PIPE] |58|  ; [ORIG 16-BIT INS]
     288 0000006c 6008              STR       A1, [A2, #0]          ; [DPU_3_PIPE] |58|  ; [ORIG 16-BIT INS]
     289                            .dwpsn  file "../Tasks/Task_Report.c",line 59,column 3,is_stmt,isa 1
     290 0000006e 60FAF44F          MOV       A1, #2000             ; [DPU_3_PIPE] |59|  ; [KEEP 32-BIT INS]
     291                    $C$DW$32        .dwtag  DW_TAG_TI_branch
     292                            .dwattr $C$DW$32, DW_AT_low_pc(0x00)
     293                            .dwattr $C$DW$32, DW_AT_name("vTaskDelay")
     294                            .dwattr $C$DW$32, DW_AT_TI_call
     295 00000072 FFFEF7FF!         BL        vTaskDelay            ; [DPU_3_PIPE] |59|  ; [KEEP 32-BIT INS]
     296                            ; CALL OCCURS {vTaskDelay }      ; [] |59| 
     297                            .dwpsn  file "../Tasks/Task_Report.c",line 64,column 3,is_stmt,isa 1
     298 00000076 490B              LDR       A2, $C$CON3           ; [DPU_3_PIPE] |64|  ; [ORIG 16-BIT INS]
     299 00000078 6808              LDR       A1, [A2, #0]          ; [DPU_3_PIPE] |64|  ; [ORIG 16-BIT INS]
     300 0000007a 1E40              SUBS      A1, A1, #1            ; [DPU_3_PIPE] |64|  ; [ORIG 16-BIT INS]
     301 0000007c 6008              STR       A1, [A2, #0]          ; [DPU_3_PIPE] |64|  ; [ORIG 16-BIT INS]
     302                            .dwpsn  file "../Tasks/Task_Report.c",line 51,column 10,is_stmt,isa 1
     303 0000007e E7CC              B         ||$C$L1||             ; [DPU_3_PIPE] |51|  ; [ORIG 16-BIT INS]
     304                            ; BRANCH OCCURS {||$C$L1||}      ; [] |51| 
     305                    ;* --------------------------------------------------------------------------*
     306                            .dwattr $C$DW$20, DW_AT_TI_end_file("../Tasks/Task_Report.c")
     307                            .dwattr $C$DW$20, DW_AT_TI_end_line(0x42)
     308                            .dwattr $C$DW$20, DW_AT_TI_end_column(0x01)
     309                            .dwendentry
     310                            .dwendtag $C$DW$20
     311                    
     312                    ;******************************************************************************
     313                    ;* STRINGS                                                                    *
     314                    ;******************************************************************************
     315 00000080                   .sect   ".text"
     316                            .align  4
     317 00000080 25        ||$C$SL1||:     .string "%08d, %02d, %d, %d, %d, %d",10,0
         00000081 30       
         00000082 38       
         00000083 64       
         00000084 2C       
         00000085 20       
         00000086 25       
         00000087 30       
         00000088 32       
         00000089 64       
         0000008a 2C       
         0000008b 20       
         0000008c 25       
         0000008d 64       
TI ARM Assembler PC v5.2.5 Mon May 02 13:42:04 2016

Tools Copyright (c) 1996-2015 Texas Instruments Incorporated
Task_Report.asm                                                      PAGE    7

         0000008e 2C       
         0000008f 20       
         00000090 25       
         00000091 64       
         00000092 2C       
         00000093 20       
         00000094 25       
         00000095 64       
         00000096 2C       
         00000097 20       
         00000098 25       
         00000099 64       
         0000009a 0A       
         0000009b 00       
     318                    ;******************************************************************************
     319                    ;* CONSTANT TABLE                                                             *
     320                    ;******************************************************************************
     321 0000009c                   .sect   ".text"
     322                            .align  4
     323 0000009c 00000000! ||$C$CON1||:    .bits   ReportData_Queue,32
     324                            .align  4
     325 000000a0 00000000! ||$C$CON2||:    .bits   rqueue_count,32
     326                            .align  4
     327 000000a4 00000000! ||$C$CON3||:    .bits   hqueue_count,32
     328                    ;*****************************************************************************
     329                    ;* UNDEFINED EXTERNAL REFERENCES                                             *
     330                    ;*****************************************************************************
     331                            .global UARTprintf
     332                            .global UART_Initialization
     333                            .global vTaskDelay
     334                            .global xQueueGenericReceive
     335                            .global xQueueGenericCreate
     336                            .global rqueue_count
     337                            .global hqueue_count
     338                            .global __aeabi_f2d
     339                    
     340                    ;******************************************************************************
     341                    ;* BUILD ATTRIBUTES                                                           *
     342                    ;******************************************************************************
     343                            .battr "aeabi", Tag_File, 1, Tag_ABI_PCS_wchar_t(2)
     344                            .battr "aeabi", Tag_File, 1, Tag_ABI_FP_rounding(0)
     345                            .battr "aeabi", Tag_File, 1, Tag_ABI_FP_denormal(0)
     346                            .battr "aeabi", Tag_File, 1, Tag_ABI_FP_exceptions(0)
     347                            .battr "aeabi", Tag_File, 1, Tag_ABI_FP_number_model(1)
     348                            .battr "aeabi", Tag_File, 1, Tag_ABI_enum_size(1)
     349                            .battr "aeabi", Tag_File, 1, Tag_ABI_optimization_goals(5)
     350                            .battr "aeabi", Tag_File, 1, Tag_ABI_FP_optimization_goals(0)
     351                            .battr "TI", Tag_File, 1, Tag_Bitfield_layout(2)
     352                            .battr "TI", Tag_File, 1, Tag_FP_interface(0)
     353                    
     354                    ;******************************************************************************
     355                    ;* TYPE INFORMATION                                                           *
     356                    ;******************************************************************************
     357                    
     358                    $C$DW$T$53      .dwtag  DW_TAG_enumeration_type
TI ARM Assembler PC v5.2.5 Mon May 02 13:42:04 2016

Tools Copyright (c) 1996-2015 Texas Instruments Incorporated
Task_Report.asm                                                      PAGE    8

     359                            .dwattr $C$DW$T$53, DW_AT_byte_size(0x01)
     360                    $C$DW$33        .dwtag  DW_TAG_enumerator, DW_AT_name("eRunning"), DW_AT_const_value(0x00)
     361                            .dwattr $C$DW$33, DW_AT_decl_file("C:/Users/trilu/Downloads/TI_ARM_Tiva_Projects_EECS_690_Sp16
     362                            .dwattr $C$DW$33, DW_AT_decl_line(0x72)
     363                            .dwattr $C$DW$33, DW_AT_decl_column(0x02)
     364                    $C$DW$34        .dwtag  DW_TAG_enumerator, DW_AT_name("eReady"), DW_AT_const_value(0x01)
     365                            .dwattr $C$DW$34, DW_AT_decl_file("C:/Users/trilu/Downloads/TI_ARM_Tiva_Projects_EECS_690_Sp16
     366                            .dwattr $C$DW$34, DW_AT_decl_line(0x73)
     367                            .dwattr $C$DW$34, DW_AT_decl_column(0x02)
     368                    $C$DW$35        .dwtag  DW_TAG_enumerator, DW_AT_name("eBlocked"), DW_AT_const_value(0x02)
     369                            .dwattr $C$DW$35, DW_AT_decl_file("C:/Users/trilu/Downloads/TI_ARM_Tiva_Projects_EECS_690_Sp16
     370                            .dwattr $C$DW$35, DW_AT_decl_line(0x74)
     371                            .dwattr $C$DW$35, DW_AT_decl_column(0x02)
     372                    $C$DW$36        .dwtag  DW_TAG_enumerator, DW_AT_name("eSuspended"), DW_AT_const_value(0x03)
     373                            .dwattr $C$DW$36, DW_AT_decl_file("C:/Users/trilu/Downloads/TI_ARM_Tiva_Projects_EECS_690_Sp16
     374                            .dwattr $C$DW$36, DW_AT_decl_line(0x75)
     375                            .dwattr $C$DW$36, DW_AT_decl_column(0x02)
     376                    $C$DW$37        .dwtag  DW_TAG_enumerator, DW_AT_name("eDeleted"), DW_AT_const_value(0x04)
     377                            .dwattr $C$DW$37, DW_AT_decl_file("C:/Users/trilu/Downloads/TI_ARM_Tiva_Projects_EECS_690_Sp16
     378                            .dwattr $C$DW$37, DW_AT_decl_line(0x76)
     379                            .dwattr $C$DW$37, DW_AT_decl_column(0x02)
     380                            .dwendtag $C$DW$T$53
     381                    
     382                            .dwattr $C$DW$T$53, DW_AT_decl_file("C:/Users/trilu/Downloads/TI_ARM_Tiva_Projects_EECS_690_Sp
     383                            .dwattr $C$DW$T$53, DW_AT_decl_line(0x71)
     384                            .dwattr $C$DW$T$53, DW_AT_decl_column(0x01)
     385                    $C$DW$T$54      .dwtag  DW_TAG_typedef, DW_AT_name("eTaskState")
     386                            .dwattr $C$DW$T$54, DW_AT_type(*$C$DW$T$53)
     387                            .dwattr $C$DW$T$54, DW_AT_language(DW_LANG_C)
     388                            .dwattr $C$DW$T$54, DW_AT_decl_file("C:/Users/trilu/Downloads/TI_ARM_Tiva_Projects_EECS_690_Sp
     389                            .dwattr $C$DW$T$54, DW_AT_decl_line(0x77)
     390                            .dwattr $C$DW$T$54, DW_AT_decl_column(0x03)
     391                    
     392                    $C$DW$T$59      .dwtag  DW_TAG_enumeration_type
     393                            .dwattr $C$DW$T$59, DW_AT_byte_size(0x01)
     394                    $C$DW$38        .dwtag  DW_TAG_enumerator, DW_AT_name("eNoAction"), DW_AT_const_value(0x00)
     395                            .dwattr $C$DW$38, DW_AT_decl_file("C:/Users/trilu/Downloads/TI_ARM_Tiva_Projects_EECS_690_Sp16
     396                            .dwattr $C$DW$38, DW_AT_decl_line(0x7c)
     397                            .dwattr $C$DW$38, DW_AT_decl_column(0x02)
     398                    $C$DW$39        .dwtag  DW_TAG_enumerator, DW_AT_name("eSetBits"), DW_AT_const_value(0x01)
     399                            .dwattr $C$DW$39, DW_AT_decl_file("C:/Users/trilu/Downloads/TI_ARM_Tiva_Projects_EECS_690_Sp16
     400                            .dwattr $C$DW$39, DW_AT_decl_line(0x7d)
     401                            .dwattr $C$DW$39, DW_AT_decl_column(0x02)
     402                    $C$DW$40        .dwtag  DW_TAG_enumerator, DW_AT_name("eIncrement"), DW_AT_const_value(0x02)
     403                            .dwattr $C$DW$40, DW_AT_decl_file("C:/Users/trilu/Downloads/TI_ARM_Tiva_Projects_EECS_690_Sp16
     404                            .dwattr $C$DW$40, DW_AT_decl_line(0x7e)
     405                            .dwattr $C$DW$40, DW_AT_decl_column(0x02)
     406                    $C$DW$41        .dwtag  DW_TAG_enumerator, DW_AT_name("eSetValueWithOverwrite"), DW_AT_const_value(0x0
     407                            .dwattr $C$DW$41, DW_AT_decl_file("C:/Users/trilu/Downloads/TI_ARM_Tiva_Projects_EECS_690_Sp16
     408                            .dwattr $C$DW$41, DW_AT_decl_line(0x7f)
     409                            .dwattr $C$DW$41, DW_AT_decl_column(0x02)
     410                    $C$DW$42        .dwtag  DW_TAG_enumerator, DW_AT_name("eSetValueWithoutOverwrite"), DW_AT_const_value(
     411                            .dwattr $C$DW$42, DW_AT_decl_file("C:/Users/trilu/Downloads/TI_ARM_Tiva_Projects_EECS_690_Sp16
     412                            .dwattr $C$DW$42, DW_AT_decl_line(0x80)
     413                            .dwattr $C$DW$42, DW_AT_decl_column(0x02)
TI ARM Assembler PC v5.2.5 Mon May 02 13:42:04 2016

Tools Copyright (c) 1996-2015 Texas Instruments Incorporated
Task_Report.asm                                                      PAGE    9

     414                            .dwendtag $C$DW$T$59
     415                    
     416                            .dwattr $C$DW$T$59, DW_AT_decl_file("C:/Users/trilu/Downloads/TI_ARM_Tiva_Projects_EECS_690_Sp
     417                            .dwattr $C$DW$T$59, DW_AT_decl_line(0x7b)
     418                            .dwattr $C$DW$T$59, DW_AT_decl_column(0x01)
     419                    $C$DW$T$60      .dwtag  DW_TAG_typedef, DW_AT_name("eNotifyAction")
     420                            .dwattr $C$DW$T$60, DW_AT_type(*$C$DW$T$59)
     421                            .dwattr $C$DW$T$60, DW_AT_language(DW_LANG_C)
     422                            .dwattr $C$DW$T$60, DW_AT_decl_file("C:/Users/trilu/Downloads/TI_ARM_Tiva_Projects_EECS_690_Sp
     423                            .dwattr $C$DW$T$60, DW_AT_decl_line(0x81)
     424                            .dwattr $C$DW$T$60, DW_AT_decl_column(0x03)
     425                    
     426                    $C$DW$T$61      .dwtag  DW_TAG_enumeration_type
     427                            .dwattr $C$DW$T$61, DW_AT_byte_size(0x01)
     428                    $C$DW$43        .dwtag  DW_TAG_enumerator, DW_AT_name("eAbortSleep"), DW_AT_const_value(0x00)
     429                            .dwattr $C$DW$43, DW_AT_decl_file("C:/Users/trilu/Downloads/TI_ARM_Tiva_Projects_EECS_690_Sp16
     430                            .dwattr $C$DW$43, DW_AT_decl_line(0xb5)
     431                            .dwattr $C$DW$43, DW_AT_decl_column(0x02)
     432                    $C$DW$44        .dwtag  DW_TAG_enumerator, DW_AT_name("eStandardSleep"), DW_AT_const_value(0x01)
     433                            .dwattr $C$DW$44, DW_AT_decl_file("C:/Users/trilu/Downloads/TI_ARM_Tiva_Projects_EECS_690_Sp16
     434                            .dwattr $C$DW$44, DW_AT_decl_line(0xb6)
     435                            .dwattr $C$DW$44, DW_AT_decl_column(0x02)
     436                    $C$DW$45        .dwtag  DW_TAG_enumerator, DW_AT_name("eNoTasksWaitingTimeout"), DW_AT_const_value(0x0
     437                            .dwattr $C$DW$45, DW_AT_decl_file("C:/Users/trilu/Downloads/TI_ARM_Tiva_Projects_EECS_690_Sp16
     438                            .dwattr $C$DW$45, DW_AT_decl_line(0xb7)
     439                            .dwattr $C$DW$45, DW_AT_decl_column(0x02)
     440                            .dwendtag $C$DW$T$61
     441                    
     442                            .dwattr $C$DW$T$61, DW_AT_decl_file("C:/Users/trilu/Downloads/TI_ARM_Tiva_Projects_EECS_690_Sp
     443                            .dwattr $C$DW$T$61, DW_AT_decl_line(0xb4)
     444                            .dwattr $C$DW$T$61, DW_AT_decl_column(0x01)
     445                    $C$DW$T$62      .dwtag  DW_TAG_typedef, DW_AT_name("eSleepModeStatus")
     446                            .dwattr $C$DW$T$62, DW_AT_type(*$C$DW$T$61)
     447                            .dwattr $C$DW$T$62, DW_AT_language(DW_LANG_C)
     448                            .dwattr $C$DW$T$62, DW_AT_decl_file("C:/Users/trilu/Downloads/TI_ARM_Tiva_Projects_EECS_690_Sp
     449                            .dwattr $C$DW$T$62, DW_AT_decl_line(0xb8)
     450                            .dwattr $C$DW$T$62, DW_AT_decl_column(0x03)
     451                    
     452                    $C$DW$T$20      .dwtag  DW_TAG_structure_type
     453                            .dwattr $C$DW$T$20, DW_AT_byte_size(0x18)
     454                    $C$DW$46        .dwtag  DW_TAG_member
     455                            .dwattr $C$DW$46, DW_AT_type(*$C$DW$T$10)
     456                            .dwattr $C$DW$46, DW_AT_name("fd")
     457                            .dwattr $C$DW$46, DW_AT_TI_symbol_name("fd")
     458                            .dwattr $C$DW$46, DW_AT_data_member_location[DW_OP_plus_uconst 0x0]
     459                            .dwattr $C$DW$46, DW_AT_accessibility(DW_ACCESS_public)
     460                            .dwattr $C$DW$46, DW_AT_decl_file("C:/ti/ccsv6/tools/compiler/ti-cgt-arm_5.2.5/include/stdio.h
     461                            .dwattr $C$DW$46, DW_AT_decl_line(0x5c)
     462                            .dwattr $C$DW$46, DW_AT_decl_column(0x0b)
     463                    $C$DW$47        .dwtag  DW_TAG_member
     464                            .dwattr $C$DW$47, DW_AT_type(*$C$DW$T$19)
     465                            .dwattr $C$DW$47, DW_AT_name("buf")
     466                            .dwattr $C$DW$47, DW_AT_TI_symbol_name("buf")
     467                            .dwattr $C$DW$47, DW_AT_data_member_location[DW_OP_plus_uconst 0x4]
     468                            .dwattr $C$DW$47, DW_AT_accessibility(DW_ACCESS_public)
TI ARM Assembler PC v5.2.5 Mon May 02 13:42:04 2016

Tools Copyright (c) 1996-2015 Texas Instruments Incorporated
Task_Report.asm                                                      PAGE   10

     469                            .dwattr $C$DW$47, DW_AT_decl_file("C:/ti/ccsv6/tools/compiler/ti-cgt-arm_5.2.5/include/stdio.h
     470                            .dwattr $C$DW$47, DW_AT_decl_line(0x5d)
     471                            .dwattr $C$DW$47, DW_AT_decl_column(0x16)
     472                    $C$DW$48        .dwtag  DW_TAG_member
     473                            .dwattr $C$DW$48, DW_AT_type(*$C$DW$T$19)
     474                            .dwattr $C$DW$48, DW_AT_name("pos")
     475                            .dwattr $C$DW$48, DW_AT_TI_symbol_name("pos")
     476                            .dwattr $C$DW$48, DW_AT_data_member_location[DW_OP_plus_uconst 0x8]
     477                            .dwattr $C$DW$48, DW_AT_accessibility(DW_ACCESS_public)
     478                            .dwattr $C$DW$48, DW_AT_decl_file("C:/ti/ccsv6/tools/compiler/ti-cgt-arm_5.2.5/include/stdio.h
     479                            .dwattr $C$DW$48, DW_AT_decl_line(0x5e)
     480                            .dwattr $C$DW$48, DW_AT_decl_column(0x16)
     481                    $C$DW$49        .dwtag  DW_TAG_member
     482                            .dwattr $C$DW$49, DW_AT_type(*$C$DW$T$19)
     483                            .dwattr $C$DW$49, DW_AT_name("bufend")
     484                            .dwattr $C$DW$49, DW_AT_TI_symbol_name("bufend")
     485                            .dwattr $C$DW$49, DW_AT_data_member_location[DW_OP_plus_uconst 0xc]
     486                            .dwattr $C$DW$49, DW_AT_accessibility(DW_ACCESS_public)
     487                            .dwattr $C$DW$49, DW_AT_decl_file("C:/ti/ccsv6/tools/compiler/ti-cgt-arm_5.2.5/include/stdio.h
     488                            .dwattr $C$DW$49, DW_AT_decl_line(0x5f)
     489                            .dwattr $C$DW$49, DW_AT_decl_column(0x16)
     490                    $C$DW$50        .dwtag  DW_TAG_member
     491                            .dwattr $C$DW$50, DW_AT_type(*$C$DW$T$19)
     492                            .dwattr $C$DW$50, DW_AT_name("buff_stop")
     493                            .dwattr $C$DW$50, DW_AT_TI_symbol_name("buff_stop")
     494                            .dwattr $C$DW$50, DW_AT_data_member_location[DW_OP_plus_uconst 0x10]
     495                            .dwattr $C$DW$50, DW_AT_accessibility(DW_ACCESS_public)
     496                            .dwattr $C$DW$50, DW_AT_decl_file("C:/ti/ccsv6/tools/compiler/ti-cgt-arm_5.2.5/include/stdio.h
     497                            .dwattr $C$DW$50, DW_AT_decl_line(0x60)
     498                            .dwattr $C$DW$50, DW_AT_decl_column(0x16)
     499                    $C$DW$51        .dwtag  DW_TAG_member
     500                            .dwattr $C$DW$51, DW_AT_type(*$C$DW$T$11)
     501                            .dwattr $C$DW$51, DW_AT_name("flags")
     502                            .dwattr $C$DW$51, DW_AT_TI_symbol_name("flags")
     503                            .dwattr $C$DW$51, DW_AT_data_member_location[DW_OP_plus_uconst 0x14]
     504                            .dwattr $C$DW$51, DW_AT_accessibility(DW_ACCESS_public)
     505                            .dwattr $C$DW$51, DW_AT_decl_file("C:/ti/ccsv6/tools/compiler/ti-cgt-arm_5.2.5/include/stdio.h
     506                            .dwattr $C$DW$51, DW_AT_decl_line(0x61)
     507                            .dwattr $C$DW$51, DW_AT_decl_column(0x16)
     508                            .dwendtag $C$DW$T$20
     509                    
     510                            .dwattr $C$DW$T$20, DW_AT_decl_file("C:/ti/ccsv6/tools/compiler/ti-cgt-arm_5.2.5/include/stdio
     511                            .dwattr $C$DW$T$20, DW_AT_decl_line(0x5b)
     512                            .dwattr $C$DW$T$20, DW_AT_decl_column(0x10)
     513                    $C$DW$T$63      .dwtag  DW_TAG_typedef, DW_AT_name("FILE")
     514                            .dwattr $C$DW$T$63, DW_AT_type(*$C$DW$T$20)
     515                            .dwattr $C$DW$T$63, DW_AT_language(DW_LANG_C)
     516                            .dwattr $C$DW$T$63, DW_AT_decl_file("C:/ti/ccsv6/tools/compiler/ti-cgt-arm_5.2.5/include/stdio
     517                            .dwattr $C$DW$T$63, DW_AT_decl_line(0x62)
     518                            .dwattr $C$DW$T$63, DW_AT_decl_column(0x03)
     519                    
     520                    $C$DW$T$24      .dwtag  DW_TAG_structure_type
     521                            .dwattr $C$DW$T$24, DW_AT_name("HeapRegion")
     522                            .dwattr $C$DW$T$24, DW_AT_byte_size(0x08)
     523                    $C$DW$52        .dwtag  DW_TAG_member
TI ARM Assembler PC v5.2.5 Mon May 02 13:42:04 2016

Tools Copyright (c) 1996-2015 Texas Instruments Incorporated
Task_Report.asm                                                      PAGE   11

     524                            .dwattr $C$DW$52, DW_AT_type(*$C$DW$T$22)
     525                            .dwattr $C$DW$52, DW_AT_name("pucStartAddress")
     526                            .dwattr $C$DW$52, DW_AT_TI_symbol_name("pucStartAddress")
     527                            .dwattr $C$DW$52, DW_AT_data_member_location[DW_OP_plus_uconst 0x0]
     528                            .dwattr $C$DW$52, DW_AT_accessibility(DW_ACCESS_public)
     529                            .dwattr $C$DW$52, DW_AT_decl_file("C:\Users\trilu\Downloads\TI_ARM_Tiva_Projects_EECS_690_Sp16
     530                            .dwattr $C$DW$52, DW_AT_decl_line(0x96)
     531                            .dwattr $C$DW$52, DW_AT_decl_column(0x0b)
     532                    $C$DW$53        .dwtag  DW_TAG_member
     533                            .dwattr $C$DW$53, DW_AT_type(*$C$DW$T$23)
     534                            .dwattr $C$DW$53, DW_AT_name("xSizeInBytes")
     535                            .dwattr $C$DW$53, DW_AT_TI_symbol_name("xSizeInBytes")
     536                            .dwattr $C$DW$53, DW_AT_data_member_location[DW_OP_plus_uconst 0x4]
     537                            .dwattr $C$DW$53, DW_AT_accessibility(DW_ACCESS_public)
     538                            .dwattr $C$DW$53, DW_AT_decl_file("C:\Users\trilu\Downloads\TI_ARM_Tiva_Projects_EECS_690_Sp16
     539                            .dwattr $C$DW$53, DW_AT_decl_line(0x97)
     540                            .dwattr $C$DW$53, DW_AT_decl_column(0x09)
     541                            .dwendtag $C$DW$T$24
     542                    
     543                            .dwattr $C$DW$T$24, DW_AT_decl_file("C:\Users\trilu\Downloads\TI_ARM_Tiva_Projects_EECS_690_Sp
     544                            .dwattr $C$DW$T$24, DW_AT_decl_line(0x94)
     545                            .dwattr $C$DW$T$24, DW_AT_decl_column(0x10)
     546                    $C$DW$T$64      .dwtag  DW_TAG_typedef, DW_AT_name("HeapRegion_t")
     547                            .dwattr $C$DW$T$64, DW_AT_type(*$C$DW$T$24)
     548                            .dwattr $C$DW$T$64, DW_AT_language(DW_LANG_C)
     549                            .dwattr $C$DW$T$64, DW_AT_decl_file("C:\Users\trilu\Downloads\TI_ARM_Tiva_Projects_EECS_690_Sp
     550                            .dwattr $C$DW$T$64, DW_AT_decl_line(0x98)
     551                            .dwattr $C$DW$T$64, DW_AT_decl_column(0x03)
     552                    
     553                    $C$DW$T$26      .dwtag  DW_TAG_structure_type
     554                            .dwattr $C$DW$T$26, DW_AT_name("ReportData_Item")
     555                            .dwattr $C$DW$T$26, DW_AT_byte_size(0x0c)
     556                    $C$DW$54        .dwtag  DW_TAG_member
     557                            .dwattr $C$DW$54, DW_AT_type(*$C$DW$T$25)
     558                            .dwattr $C$DW$54, DW_AT_name("timestamp")
     559                            .dwattr $C$DW$54, DW_AT_TI_symbol_name("timestamp")
     560                            .dwattr $C$DW$54, DW_AT_data_member_location[DW_OP_plus_uconst 0x0]
     561                            .dwattr $C$DW$54, DW_AT_accessibility(DW_ACCESS_public)
     562                            .dwattr $C$DW$54, DW_AT_decl_file("C:/Users/trilu/workspace_eecs/FreeRTOS823_3_TM4C1294_Base_T
     563                            .dwattr $C$DW$54, DW_AT_decl_line(0x1e)
     564                            .dwattr $C$DW$54, DW_AT_decl_column(0x0b)
     565                    $C$DW$55        .dwtag  DW_TAG_member
     566                            .dwattr $C$DW$55, DW_AT_type(*$C$DW$T$25)
     567                            .dwattr $C$DW$55, DW_AT_name("ID")
     568                            .dwattr $C$DW$55, DW_AT_TI_symbol_name("ID")
     569                            .dwattr $C$DW$55, DW_AT_data_member_location[DW_OP_plus_uconst 0x4]
     570                            .dwattr $C$DW$55, DW_AT_accessibility(DW_ACCESS_public)
     571                            .dwattr $C$DW$55, DW_AT_decl_file("C:/Users/trilu/workspace_eecs/FreeRTOS823_3_TM4C1294_Base_T
     572                            .dwattr $C$DW$55, DW_AT_decl_line(0x1f)
     573                            .dwattr $C$DW$55, DW_AT_decl_column(0x0b)
     574                    $C$DW$56        .dwtag  DW_TAG_member
     575                            .dwattr $C$DW$56, DW_AT_type(*$C$DW$T$25)
     576                            .dwattr $C$DW$56, DW_AT_name("value")
     577                            .dwattr $C$DW$56, DW_AT_TI_symbol_name("value")
     578                            .dwattr $C$DW$56, DW_AT_data_member_location[DW_OP_plus_uconst 0x8]
TI ARM Assembler PC v5.2.5 Mon May 02 13:42:04 2016

Tools Copyright (c) 1996-2015 Texas Instruments Incorporated
Task_Report.asm                                                      PAGE   12

     579                            .dwattr $C$DW$56, DW_AT_accessibility(DW_ACCESS_public)
     580                            .dwattr $C$DW$56, DW_AT_decl_file("C:/Users/trilu/workspace_eecs/FreeRTOS823_3_TM4C1294_Base_T
     581                            .dwattr $C$DW$56, DW_AT_decl_line(0x20)
     582                            .dwattr $C$DW$56, DW_AT_decl_column(0x0b)
     583                            .dwendtag $C$DW$T$26
     584                    
     585                            .dwattr $C$DW$T$26, DW_AT_decl_file("C:/Users/trilu/workspace_eecs/FreeRTOS823_3_TM4C1294_Base
     586                            .dwattr $C$DW$T$26, DW_AT_decl_line(0x1c)
     587                            .dwattr $C$DW$T$26, DW_AT_decl_column(0x10)
     588                    $C$DW$T$65      .dwtag  DW_TAG_typedef, DW_AT_name("ReportData_Item")
     589                            .dwattr $C$DW$T$65, DW_AT_type(*$C$DW$T$26)
     590                            .dwattr $C$DW$T$65, DW_AT_language(DW_LANG_C)
     591                            .dwattr $C$DW$T$65, DW_AT_decl_file("C:/Users/trilu/workspace_eecs/FreeRTOS823_3_TM4C1294_Base
     592                            .dwattr $C$DW$T$65, DW_AT_decl_line(0x21)
     593                            .dwattr $C$DW$T$65, DW_AT_decl_column(0x03)
     594                    
     595                    $C$DW$T$27      .dwtag  DW_TAG_structure_type
     596                            .dwattr $C$DW$T$27, DW_AT_name("Report_Item")
     597                            .dwattr $C$DW$T$27, DW_AT_byte_size(0x18)
     598                    $C$DW$57        .dwtag  DW_TAG_member
     599                            .dwattr $C$DW$57, DW_AT_type(*$C$DW$T$25)
     600                            .dwattr $C$DW$57, DW_AT_name("timestamp")
     601                            .dwattr $C$DW$57, DW_AT_TI_symbol_name("timestamp")
     602                            .dwattr $C$DW$57, DW_AT_data_member_location[DW_OP_plus_uconst 0x0]
     603                            .dwattr $C$DW$57, DW_AT_accessibility(DW_ACCESS_public)
     604                            .dwattr $C$DW$57, DW_AT_decl_file("C:/Users/trilu/workspace_eecs/FreeRTOS823_3_TM4C1294_Base_T
     605                            .dwattr $C$DW$57, DW_AT_decl_line(0x25)
     606                            .dwattr $C$DW$57, DW_AT_decl_column(0x0b)
     607                    $C$DW$58        .dwtag  DW_TAG_member
     608                            .dwattr $C$DW$58, DW_AT_type(*$C$DW$T$25)
     609                            .dwattr $C$DW$58, DW_AT_name("ID")
     610                            .dwattr $C$DW$58, DW_AT_TI_symbol_name("ID")
     611                            .dwattr $C$DW$58, DW_AT_data_member_location[DW_OP_plus_uconst 0x4]
     612                            .dwattr $C$DW$58, DW_AT_accessibility(DW_ACCESS_public)
     613                            .dwattr $C$DW$58, DW_AT_decl_file("C:/Users/trilu/workspace_eecs/FreeRTOS823_3_TM4C1294_Base_T
     614                            .dwattr $C$DW$58, DW_AT_decl_line(0x26)
     615                            .dwattr $C$DW$58, DW_AT_decl_column(0x0b)
     616                    $C$DW$59        .dwtag  DW_TAG_member
     617                            .dwattr $C$DW$59, DW_AT_type(*$C$DW$T$25)
     618                            .dwattr $C$DW$59, DW_AT_name("ADC_input")
     619                            .dwattr $C$DW$59, DW_AT_TI_symbol_name("ADC_input")
     620                            .dwattr $C$DW$59, DW_AT_data_member_location[DW_OP_plus_uconst 0x8]
     621                            .dwattr $C$DW$59, DW_AT_accessibility(DW_ACCESS_public)
     622                            .dwattr $C$DW$59, DW_AT_decl_file("C:/Users/trilu/workspace_eecs/FreeRTOS823_3_TM4C1294_Base_T
     623                            .dwattr $C$DW$59, DW_AT_decl_line(0x27)
     624                            .dwattr $C$DW$59, DW_AT_decl_column(0x0b)
     625                    $C$DW$60        .dwtag  DW_TAG_member
     626                            .dwattr $C$DW$60, DW_AT_type(*$C$DW$T$16)
     627                            .dwattr $C$DW$60, DW_AT_name("temperature")
     628                            .dwattr $C$DW$60, DW_AT_TI_symbol_name("temperature")
     629                            .dwattr $C$DW$60, DW_AT_data_member_location[DW_OP_plus_uconst 0xc]
     630                            .dwattr $C$DW$60, DW_AT_accessibility(DW_ACCESS_public)
     631                            .dwattr $C$DW$60, DW_AT_decl_file("C:/Users/trilu/workspace_eecs/FreeRTOS823_3_TM4C1294_Base_T
     632                            .dwattr $C$DW$60, DW_AT_decl_line(0x28)
     633                            .dwattr $C$DW$60, DW_AT_decl_column(0x08)
TI ARM Assembler PC v5.2.5 Mon May 02 13:42:04 2016

Tools Copyright (c) 1996-2015 Texas Instruments Incorporated
Task_Report.asm                                                      PAGE   13

     634                    $C$DW$61        .dwtag  DW_TAG_member
     635                            .dwattr $C$DW$61, DW_AT_type(*$C$DW$T$16)
     636                            .dwattr $C$DW$61, DW_AT_name("PID")
     637                            .dwattr $C$DW$61, DW_AT_TI_symbol_name("PID")
     638                            .dwattr $C$DW$61, DW_AT_data_member_location[DW_OP_plus_uconst 0x10]
     639                            .dwattr $C$DW$61, DW_AT_accessibility(DW_ACCESS_public)
     640                            .dwattr $C$DW$61, DW_AT_decl_file("C:/Users/trilu/workspace_eecs/FreeRTOS823_3_TM4C1294_Base_T
     641                            .dwattr $C$DW$61, DW_AT_decl_line(0x2c)
     642                            .dwattr $C$DW$61, DW_AT_decl_column(0x08)
     643                    $C$DW$62        .dwtag  DW_TAG_member
     644                            .dwattr $C$DW$62, DW_AT_type(*$C$DW$T$16)
     645                            .dwattr $C$DW$62, DW_AT_name("PWM")
     646                            .dwattr $C$DW$62, DW_AT_TI_symbol_name("PWM")
     647                            .dwattr $C$DW$62, DW_AT_data_member_location[DW_OP_plus_uconst 0x14]
     648                            .dwattr $C$DW$62, DW_AT_accessibility(DW_ACCESS_public)
     649                            .dwattr $C$DW$62, DW_AT_decl_file("C:/Users/trilu/workspace_eecs/FreeRTOS823_3_TM4C1294_Base_T
     650                            .dwattr $C$DW$62, DW_AT_decl_line(0x2d)
     651                            .dwattr $C$DW$62, DW_AT_decl_column(0x08)
     652                            .dwendtag $C$DW$T$27
     653                    
     654                            .dwattr $C$DW$T$27, DW_AT_decl_file("C:/Users/trilu/workspace_eecs/FreeRTOS823_3_TM4C1294_Base
     655                            .dwattr $C$DW$T$27, DW_AT_decl_line(0x23)
     656                            .dwattr $C$DW$T$27, DW_AT_decl_column(0x10)
     657                    $C$DW$T$66      .dwtag  DW_TAG_typedef, DW_AT_name("Report_Item")
     658                            .dwattr $C$DW$T$66, DW_AT_type(*$C$DW$T$27)
     659                            .dwattr $C$DW$T$66, DW_AT_language(DW_LANG_C)
     660                            .dwattr $C$DW$T$66, DW_AT_decl_file("C:/Users/trilu/workspace_eecs/FreeRTOS823_3_TM4C1294_Base
     661                            .dwattr $C$DW$T$66, DW_AT_decl_line(0x2e)
     662                            .dwattr $C$DW$T$66, DW_AT_decl_column(0x03)
     663                    $C$DW$T$2       .dwtag  DW_TAG_unspecified_type
     664                            .dwattr $C$DW$T$2, DW_AT_name("void")
     665                    $C$DW$T$3       .dwtag  DW_TAG_pointer_type
     666                            .dwattr $C$DW$T$3, DW_AT_type(*$C$DW$T$2)
     667                            .dwattr $C$DW$T$3, DW_AT_address_class(0x20)
     668                    $C$DW$T$68      .dwtag  DW_TAG_typedef, DW_AT_name("QueueHandle_t")
     669                            .dwattr $C$DW$T$68, DW_AT_type(*$C$DW$T$3)
     670                            .dwattr $C$DW$T$68, DW_AT_language(DW_LANG_C)
     671                            .dwattr $C$DW$T$68, DW_AT_decl_file("C:/Users/trilu/Downloads/TI_ARM_Tiva_Projects_EECS_690_Sp
     672                            .dwattr $C$DW$T$68, DW_AT_decl_line(0x58)
     673                            .dwattr $C$DW$T$68, DW_AT_decl_column(0x10)
     674                    $C$DW$T$73      .dwtag  DW_TAG_typedef, DW_AT_name("QueueSetHandle_t")
     675                            .dwattr $C$DW$T$73, DW_AT_type(*$C$DW$T$3)
     676                            .dwattr $C$DW$T$73, DW_AT_language(DW_LANG_C)
     677                            .dwattr $C$DW$T$73, DW_AT_decl_file("C:/Users/trilu/Downloads/TI_ARM_Tiva_Projects_EECS_690_Sp
     678                            .dwattr $C$DW$T$73, DW_AT_decl_line(0x5f)
     679                            .dwattr $C$DW$T$73, DW_AT_decl_column(0x10)
     680                    $C$DW$T$74      .dwtag  DW_TAG_typedef, DW_AT_name("QueueSetMemberHandle_t")
     681                            .dwattr $C$DW$T$74, DW_AT_type(*$C$DW$T$3)
     682                            .dwattr $C$DW$T$74, DW_AT_language(DW_LANG_C)
     683                            .dwattr $C$DW$T$74, DW_AT_decl_file("C:/Users/trilu/Downloads/TI_ARM_Tiva_Projects_EECS_690_Sp
     684                            .dwattr $C$DW$T$74, DW_AT_decl_line(0x66)
     685                            .dwattr $C$DW$T$74, DW_AT_decl_column(0x10)
     686                    $C$DW$T$52      .dwtag  DW_TAG_typedef, DW_AT_name("TaskHandle_t")
     687                            .dwattr $C$DW$T$52, DW_AT_type(*$C$DW$T$3)
     688                            .dwattr $C$DW$T$52, DW_AT_language(DW_LANG_C)
TI ARM Assembler PC v5.2.5 Mon May 02 13:42:04 2016

Tools Copyright (c) 1996-2015 Texas Instruments Incorporated
Task_Report.asm                                                      PAGE   14

     689                            .dwattr $C$DW$T$52, DW_AT_decl_file("C:/Users/trilu/Downloads/TI_ARM_Tiva_Projects_EECS_690_Sp
     690                            .dwattr $C$DW$T$52, DW_AT_decl_line(0x67)
     691                            .dwattr $C$DW$T$52, DW_AT_decl_column(0x10)
     692                    $C$DW$T$75      .dwtag  DW_TAG_const_type
     693                            .dwattr $C$DW$T$75, DW_AT_type(*$C$DW$T$3)
     694                    
     695                    $C$DW$T$39      .dwtag  DW_TAG_subroutine_type
     696                            .dwattr $C$DW$T$39, DW_AT_language(DW_LANG_C)
     697                    $C$DW$63        .dwtag  DW_TAG_formal_parameter
     698                            .dwattr $C$DW$63, DW_AT_type(*$C$DW$T$3)
     699                            .dwendtag $C$DW$T$39
     700                    
     701                    $C$DW$T$40      .dwtag  DW_TAG_pointer_type
     702                            .dwattr $C$DW$T$40, DW_AT_type(*$C$DW$T$39)
     703                            .dwattr $C$DW$T$40, DW_AT_address_class(0x20)
     704                    $C$DW$T$41      .dwtag  DW_TAG_typedef, DW_AT_name("TaskFunction_t")
     705                            .dwattr $C$DW$T$41, DW_AT_type(*$C$DW$T$40)
     706                            .dwattr $C$DW$T$41, DW_AT_language(DW_LANG_C)
     707                            .dwattr $C$DW$T$41, DW_AT_decl_file("C:\Users\trilu\Downloads\TI_ARM_Tiva_Projects_EECS_690_Sp
     708                            .dwattr $C$DW$T$41, DW_AT_decl_line(0x4d)
     709                            .dwattr $C$DW$T$41, DW_AT_decl_column(0x10)
     710                    $C$DW$T$4       .dwtag  DW_TAG_base_type
     711                            .dwattr $C$DW$T$4, DW_AT_encoding(DW_ATE_boolean)
     712                            .dwattr $C$DW$T$4, DW_AT_name("bool")
     713                            .dwattr $C$DW$T$4, DW_AT_byte_size(0x01)
     714                    $C$DW$T$5       .dwtag  DW_TAG_base_type
     715                            .dwattr $C$DW$T$5, DW_AT_encoding(DW_ATE_signed_char)
     716                            .dwattr $C$DW$T$5, DW_AT_name("signed char")
     717                            .dwattr $C$DW$T$5, DW_AT_byte_size(0x01)
     718                    $C$DW$T$81      .dwtag  DW_TAG_typedef, DW_AT_name("int8_t")
     719                            .dwattr $C$DW$T$81, DW_AT_type(*$C$DW$T$5)
     720                            .dwattr $C$DW$T$81, DW_AT_language(DW_LANG_C)
     721                            .dwattr $C$DW$T$81, DW_AT_decl_file("C:/ti/ccsv6/tools/compiler/ti-cgt-arm_5.2.5/include/stdin
     722                            .dwattr $C$DW$T$81, DW_AT_decl_line(0x2a)
     723                            .dwattr $C$DW$T$81, DW_AT_decl_column(0x1d)
     724                    $C$DW$T$82      .dwtag  DW_TAG_typedef, DW_AT_name("int_least8_t")
     725                            .dwattr $C$DW$T$82, DW_AT_type(*$C$DW$T$81)
     726                            .dwattr $C$DW$T$82, DW_AT_language(DW_LANG_C)
     727                            .dwattr $C$DW$T$82, DW_AT_decl_file("C:/ti/ccsv6/tools/compiler/ti-cgt-arm_5.2.5/include/stdin
     728                            .dwattr $C$DW$T$82, DW_AT_decl_line(0x37)
     729                            .dwattr $C$DW$T$82, DW_AT_decl_column(0x17)
     730                    $C$DW$T$6       .dwtag  DW_TAG_base_type
     731                            .dwattr $C$DW$T$6, DW_AT_encoding(DW_ATE_unsigned_char)
     732                            .dwattr $C$DW$T$6, DW_AT_name("unsigned char")
     733                            .dwattr $C$DW$T$6, DW_AT_byte_size(0x01)
     734                    $C$DW$T$19      .dwtag  DW_TAG_pointer_type
     735                            .dwattr $C$DW$T$19, DW_AT_type(*$C$DW$T$6)
     736                            .dwattr $C$DW$T$19, DW_AT_address_class(0x20)
     737                    $C$DW$T$21      .dwtag  DW_TAG_typedef, DW_AT_name("uint8_t")
     738                            .dwattr $C$DW$T$21, DW_AT_type(*$C$DW$T$6)
     739                            .dwattr $C$DW$T$21, DW_AT_language(DW_LANG_C)
     740                            .dwattr $C$DW$T$21, DW_AT_decl_file("C:/ti/ccsv6/tools/compiler/ti-cgt-arm_5.2.5/include/stdin
     741                            .dwattr $C$DW$T$21, DW_AT_decl_line(0x2b)
     742                            .dwattr $C$DW$T$21, DW_AT_decl_column(0x1c)
     743                    $C$DW$T$22      .dwtag  DW_TAG_pointer_type
TI ARM Assembler PC v5.2.5 Mon May 02 13:42:04 2016

Tools Copyright (c) 1996-2015 Texas Instruments Incorporated
Task_Report.asm                                                      PAGE   15

     744                            .dwattr $C$DW$T$22, DW_AT_type(*$C$DW$T$21)
     745                            .dwattr $C$DW$T$22, DW_AT_address_class(0x20)
     746                    $C$DW$T$83      .dwtag  DW_TAG_typedef, DW_AT_name("portCHAR")
     747                            .dwattr $C$DW$T$83, DW_AT_type(*$C$DW$T$21)
     748                            .dwattr $C$DW$T$83, DW_AT_language(DW_LANG_C)
     749                            .dwattr $C$DW$T$83, DW_AT_decl_file("C:/Users/trilu/Downloads/TI_ARM_Tiva_Projects_EECS_690_Sp
     750                            .dwattr $C$DW$T$83, DW_AT_decl_line(0x60)
     751                            .dwattr $C$DW$T$83, DW_AT_decl_column(0x12)
     752                    $C$DW$T$70      .dwtag  DW_TAG_const_type
     753                            .dwattr $C$DW$T$70, DW_AT_type(*$C$DW$T$21)
     754                    $C$DW$T$84      .dwtag  DW_TAG_typedef, DW_AT_name("uint_least8_t")
     755                            .dwattr $C$DW$T$84, DW_AT_type(*$C$DW$T$21)
     756                            .dwattr $C$DW$T$84, DW_AT_language(DW_LANG_C)
     757                            .dwattr $C$DW$T$84, DW_AT_decl_file("C:/ti/ccsv6/tools/compiler/ti-cgt-arm_5.2.5/include/stdin
     758                            .dwattr $C$DW$T$84, DW_AT_decl_line(0x38)
     759                            .dwattr $C$DW$T$84, DW_AT_decl_column(0x16)
     760                    $C$DW$T$7       .dwtag  DW_TAG_base_type
     761                            .dwattr $C$DW$T$7, DW_AT_encoding(DW_ATE_signed_char)
     762                            .dwattr $C$DW$T$7, DW_AT_name("wchar_t")
     763                            .dwattr $C$DW$T$7, DW_AT_byte_size(0x02)
     764                    $C$DW$T$8       .dwtag  DW_TAG_base_type
     765                            .dwattr $C$DW$T$8, DW_AT_encoding(DW_ATE_signed)
     766                            .dwattr $C$DW$T$8, DW_AT_name("short")
     767                            .dwattr $C$DW$T$8, DW_AT_byte_size(0x02)
     768                    $C$DW$T$85      .dwtag  DW_TAG_typedef, DW_AT_name("int16_t")
     769                            .dwattr $C$DW$T$85, DW_AT_type(*$C$DW$T$8)
     770                            .dwattr $C$DW$T$85, DW_AT_language(DW_LANG_C)
     771                            .dwattr $C$DW$T$85, DW_AT_decl_file("C:/ti/ccsv6/tools/compiler/ti-cgt-arm_5.2.5/include/stdin
     772                            .dwattr $C$DW$T$85, DW_AT_decl_line(0x2c)
     773                            .dwattr $C$DW$T$85, DW_AT_decl_column(0x1d)
     774                    $C$DW$T$86      .dwtag  DW_TAG_typedef, DW_AT_name("int_least16_t")
     775                            .dwattr $C$DW$T$86, DW_AT_type(*$C$DW$T$85)
     776                            .dwattr $C$DW$T$86, DW_AT_language(DW_LANG_C)
     777                            .dwattr $C$DW$T$86, DW_AT_decl_file("C:/ti/ccsv6/tools/compiler/ti-cgt-arm_5.2.5/include/stdin
     778                            .dwattr $C$DW$T$86, DW_AT_decl_line(0x3a)
     779                            .dwattr $C$DW$T$86, DW_AT_decl_column(0x17)
     780                    $C$DW$T$87      .dwtag  DW_TAG_typedef, DW_AT_name("portSHORT")
     781                            .dwattr $C$DW$T$87, DW_AT_type(*$C$DW$T$85)
     782                            .dwattr $C$DW$T$87, DW_AT_language(DW_LANG_C)
     783                            .dwattr $C$DW$T$87, DW_AT_decl_file("C:/Users/trilu/Downloads/TI_ARM_Tiva_Projects_EECS_690_Sp
     784                            .dwattr $C$DW$T$87, DW_AT_decl_line(0x64)
     785                            .dwattr $C$DW$T$87, DW_AT_decl_column(0x12)
     786                    $C$DW$T$9       .dwtag  DW_TAG_base_type
     787                            .dwattr $C$DW$T$9, DW_AT_encoding(DW_ATE_unsigned)
     788                            .dwattr $C$DW$T$9, DW_AT_name("unsigned short")
     789                            .dwattr $C$DW$T$9, DW_AT_byte_size(0x02)
     790                    $C$DW$T$88      .dwtag  DW_TAG_typedef, DW_AT_name("_Wchart")
     791                            .dwattr $C$DW$T$88, DW_AT_type(*$C$DW$T$9)
     792                            .dwattr $C$DW$T$88, DW_AT_language(DW_LANG_C)
     793                            .dwattr $C$DW$T$88, DW_AT_decl_file("C:/ti/ccsv6/tools/compiler/ti-cgt-arm_5.2.5/include/yvals
     794                            .dwattr $C$DW$T$88, DW_AT_decl_line(0x1e5)
     795                            .dwattr $C$DW$T$88, DW_AT_decl_column(0x21)
     796                    $C$DW$T$89      .dwtag  DW_TAG_typedef, DW_AT_name("_Wintt")
     797                            .dwattr $C$DW$T$89, DW_AT_type(*$C$DW$T$9)
     798                            .dwattr $C$DW$T$89, DW_AT_language(DW_LANG_C)
TI ARM Assembler PC v5.2.5 Mon May 02 13:42:04 2016

Tools Copyright (c) 1996-2015 Texas Instruments Incorporated
Task_Report.asm                                                      PAGE   16

     799                            .dwattr $C$DW$T$89, DW_AT_decl_file("C:/ti/ccsv6/tools/compiler/ti-cgt-arm_5.2.5/include/yvals
     800                            .dwattr $C$DW$T$89, DW_AT_decl_line(0x1e6)
     801                            .dwattr $C$DW$T$89, DW_AT_decl_column(0x21)
     802                    $C$DW$T$46      .dwtag  DW_TAG_typedef, DW_AT_name("uint16_t")
     803                            .dwattr $C$DW$T$46, DW_AT_type(*$C$DW$T$9)
     804                            .dwattr $C$DW$T$46, DW_AT_language(DW_LANG_C)
     805                            .dwattr $C$DW$T$46, DW_AT_decl_file("C:/ti/ccsv6/tools/compiler/ti-cgt-arm_5.2.5/include/stdin
     806                            .dwattr $C$DW$T$46, DW_AT_decl_line(0x2d)
     807                            .dwattr $C$DW$T$46, DW_AT_decl_column(0x1c)
     808                    $C$DW$T$90      .dwtag  DW_TAG_typedef, DW_AT_name("uint_least16_t")
     809                            .dwattr $C$DW$T$90, DW_AT_type(*$C$DW$T$46)
     810                            .dwattr $C$DW$T$90, DW_AT_language(DW_LANG_C)
     811                            .dwattr $C$DW$T$90, DW_AT_decl_file("C:/ti/ccsv6/tools/compiler/ti-cgt-arm_5.2.5/include/stdin
     812                            .dwattr $C$DW$T$90, DW_AT_decl_line(0x3b)
     813                            .dwattr $C$DW$T$90, DW_AT_decl_column(0x16)
     814                    $C$DW$T$91      .dwtag  DW_TAG_typedef, DW_AT_name("wchar_t")
     815                            .dwattr $C$DW$T$91, DW_AT_type(*$C$DW$T$9)
     816                            .dwattr $C$DW$T$91, DW_AT_language(DW_LANG_C)
     817                            .dwattr $C$DW$T$91, DW_AT_decl_file("C:/ti/ccsv6/tools/compiler/ti-cgt-arm_5.2.5/include/stdde
     818                            .dwattr $C$DW$T$91, DW_AT_decl_line(0x41)
     819                            .dwattr $C$DW$T$91, DW_AT_decl_column(0x1a)
     820                    $C$DW$T$10      .dwtag  DW_TAG_base_type
     821                            .dwattr $C$DW$T$10, DW_AT_encoding(DW_ATE_signed)
     822                            .dwattr $C$DW$T$10, DW_AT_name("int")
     823                            .dwattr $C$DW$T$10, DW_AT_byte_size(0x04)
     824                    $C$DW$T$92      .dwtag  DW_TAG_typedef, DW_AT_name("_Ptrdifft")
     825                            .dwattr $C$DW$T$92, DW_AT_type(*$C$DW$T$10)
     826                            .dwattr $C$DW$T$92, DW_AT_language(DW_LANG_C)
     827                            .dwattr $C$DW$T$92, DW_AT_decl_file("C:/ti/ccsv6/tools/compiler/ti-cgt-arm_5.2.5/include/yvals
     828                            .dwattr $C$DW$T$92, DW_AT_decl_line(0xa9)
     829                            .dwattr $C$DW$T$92, DW_AT_decl_column(0x1e)
     830                    $C$DW$T$56      .dwtag  DW_TAG_typedef, DW_AT_name("int32_t")
     831                            .dwattr $C$DW$T$56, DW_AT_type(*$C$DW$T$10)
     832                            .dwattr $C$DW$T$56, DW_AT_language(DW_LANG_C)
     833                            .dwattr $C$DW$T$56, DW_AT_decl_file("C:/ti/ccsv6/tools/compiler/ti-cgt-arm_5.2.5/include/stdin
     834                            .dwattr $C$DW$T$56, DW_AT_decl_line(0x2e)
     835                            .dwattr $C$DW$T$56, DW_AT_decl_column(0x1d)
     836                    $C$DW$T$57      .dwtag  DW_TAG_typedef, DW_AT_name("BaseType_t")
     837                            .dwattr $C$DW$T$57, DW_AT_type(*$C$DW$T$56)
     838                            .dwattr $C$DW$T$57, DW_AT_language(DW_LANG_C)
     839                            .dwattr $C$DW$T$57, DW_AT_decl_file("C:/Users/trilu/Downloads/TI_ARM_Tiva_Projects_EECS_690_Sp
     840                            .dwattr $C$DW$T$57, DW_AT_decl_line(0x69)
     841                            .dwattr $C$DW$T$57, DW_AT_decl_column(0x12)
     842                    $C$DW$T$93      .dwtag  DW_TAG_const_type
     843                            .dwattr $C$DW$T$93, DW_AT_type(*$C$DW$T$57)
     844                    
     845                    $C$DW$T$96      .dwtag  DW_TAG_subroutine_type
     846                            .dwattr $C$DW$T$96, DW_AT_type(*$C$DW$T$57)
     847                            .dwattr $C$DW$T$96, DW_AT_language(DW_LANG_C)
     848                    $C$DW$64        .dwtag  DW_TAG_formal_parameter
     849                            .dwattr $C$DW$64, DW_AT_type(*$C$DW$T$3)
     850                            .dwendtag $C$DW$T$96
     851                    
     852                    $C$DW$T$97      .dwtag  DW_TAG_pointer_type
     853                            .dwattr $C$DW$T$97, DW_AT_type(*$C$DW$T$96)
TI ARM Assembler PC v5.2.5 Mon May 02 13:42:04 2016

Tools Copyright (c) 1996-2015 Texas Instruments Incorporated
Task_Report.asm                                                      PAGE   17

     854                            .dwattr $C$DW$T$97, DW_AT_address_class(0x20)
     855                    $C$DW$T$98      .dwtag  DW_TAG_typedef, DW_AT_name("TaskHookFunction_t")
     856                            .dwattr $C$DW$T$98, DW_AT_type(*$C$DW$T$97)
     857                            .dwattr $C$DW$T$98, DW_AT_language(DW_LANG_C)
     858                            .dwattr $C$DW$T$98, DW_AT_decl_file("C:/Users/trilu/Downloads/TI_ARM_Tiva_Projects_EECS_690_Sp
     859                            .dwattr $C$DW$T$98, DW_AT_decl_line(0x6d)
     860                            .dwattr $C$DW$T$98, DW_AT_decl_column(0x16)
     861                    $C$DW$T$99      .dwtag  DW_TAG_typedef, DW_AT_name("int_fast16_t")
     862                            .dwattr $C$DW$T$99, DW_AT_type(*$C$DW$T$56)
     863                            .dwattr $C$DW$T$99, DW_AT_language(DW_LANG_C)
     864                            .dwattr $C$DW$T$99, DW_AT_decl_file("C:/ti/ccsv6/tools/compiler/ti-cgt-arm_5.2.5/include/stdin
     865                            .dwattr $C$DW$T$99, DW_AT_decl_line(0x47)
     866                            .dwattr $C$DW$T$99, DW_AT_decl_column(0x17)
     867                    $C$DW$T$100     .dwtag  DW_TAG_typedef, DW_AT_name("int_fast32_t")
     868                            .dwattr $C$DW$T$100, DW_AT_type(*$C$DW$T$56)
     869                            .dwattr $C$DW$T$100, DW_AT_language(DW_LANG_C)
     870                            .dwattr $C$DW$T$100, DW_AT_decl_file("C:/ti/ccsv6/tools/compiler/ti-cgt-arm_5.2.5/include/stdi
     871                            .dwattr $C$DW$T$100, DW_AT_decl_line(0x4a)
     872                            .dwattr $C$DW$T$100, DW_AT_decl_column(0x17)
     873                    $C$DW$T$101     .dwtag  DW_TAG_typedef, DW_AT_name("int_fast8_t")
     874                            .dwattr $C$DW$T$101, DW_AT_type(*$C$DW$T$56)
     875                            .dwattr $C$DW$T$101, DW_AT_language(DW_LANG_C)
     876                            .dwattr $C$DW$T$101, DW_AT_decl_file("C:/ti/ccsv6/tools/compiler/ti-cgt-arm_5.2.5/include/stdi
     877                            .dwattr $C$DW$T$101, DW_AT_decl_line(0x45)
     878                            .dwattr $C$DW$T$101, DW_AT_decl_column(0x17)
     879                    $C$DW$T$102     .dwtag  DW_TAG_typedef, DW_AT_name("int_least32_t")
     880                            .dwattr $C$DW$T$102, DW_AT_type(*$C$DW$T$56)
     881                            .dwattr $C$DW$T$102, DW_AT_language(DW_LANG_C)
     882                            .dwattr $C$DW$T$102, DW_AT_decl_file("C:/ti/ccsv6/tools/compiler/ti-cgt-arm_5.2.5/include/stdi
     883                            .dwattr $C$DW$T$102, DW_AT_decl_line(0x3c)
     884                            .dwattr $C$DW$T$102, DW_AT_decl_column(0x17)
     885                    $C$DW$T$103     .dwtag  DW_TAG_typedef, DW_AT_name("portBASE_TYPE")
     886                            .dwattr $C$DW$T$103, DW_AT_type(*$C$DW$T$56)
     887                            .dwattr $C$DW$T$103, DW_AT_language(DW_LANG_C)
     888                            .dwattr $C$DW$T$103, DW_AT_decl_file("C:/Users/trilu/Downloads/TI_ARM_Tiva_Projects_EECS_690_S
     889                            .dwattr $C$DW$T$103, DW_AT_decl_line(0x66)
     890                            .dwattr $C$DW$T$103, DW_AT_decl_column(0x12)
     891                    $C$DW$T$104     .dwtag  DW_TAG_typedef, DW_AT_name("portLONG")
     892                            .dwattr $C$DW$T$104, DW_AT_type(*$C$DW$T$56)
     893                            .dwattr $C$DW$T$104, DW_AT_language(DW_LANG_C)
     894                            .dwattr $C$DW$T$104, DW_AT_decl_file("C:/Users/trilu/Downloads/TI_ARM_Tiva_Projects_EECS_690_S
     895                            .dwattr $C$DW$T$104, DW_AT_decl_line(0x63)
     896                            .dwattr $C$DW$T$104, DW_AT_decl_column(0x12)
     897                    $C$DW$T$105     .dwtag  DW_TAG_typedef, DW_AT_name("intptr_t")
     898                            .dwattr $C$DW$T$105, DW_AT_type(*$C$DW$T$10)
     899                            .dwattr $C$DW$T$105, DW_AT_language(DW_LANG_C)
     900                            .dwattr $C$DW$T$105, DW_AT_decl_file("C:/ti/ccsv6/tools/compiler/ti-cgt-arm_5.2.5/include/stdi
     901                            .dwattr $C$DW$T$105, DW_AT_decl_line(0x52)
     902                            .dwattr $C$DW$T$105, DW_AT_decl_column(0x1a)
     903                    $C$DW$T$106     .dwtag  DW_TAG_typedef, DW_AT_name("ptrdiff_t")
     904                            .dwattr $C$DW$T$106, DW_AT_type(*$C$DW$T$10)
     905                            .dwattr $C$DW$T$106, DW_AT_language(DW_LANG_C)
     906                            .dwattr $C$DW$T$106, DW_AT_decl_file("C:/ti/ccsv6/tools/compiler/ti-cgt-arm_5.2.5/include/stdd
     907                            .dwattr $C$DW$T$106, DW_AT_decl_line(0x36)
     908                            .dwattr $C$DW$T$106, DW_AT_decl_column(0x1c)
TI ARM Assembler PC v5.2.5 Mon May 02 13:42:04 2016

Tools Copyright (c) 1996-2015 Texas Instruments Incorporated
Task_Report.asm                                                      PAGE   18

     909                    $C$DW$T$11      .dwtag  DW_TAG_base_type
     910                            .dwattr $C$DW$T$11, DW_AT_encoding(DW_ATE_unsigned)
     911                            .dwattr $C$DW$T$11, DW_AT_name("unsigned int")
     912                            .dwattr $C$DW$T$11, DW_AT_byte_size(0x04)
     913                    $C$DW$T$107     .dwtag  DW_TAG_typedef, DW_AT_name("_Sizet")
     914                            .dwattr $C$DW$T$107, DW_AT_type(*$C$DW$T$11)
     915                            .dwattr $C$DW$T$107, DW_AT_language(DW_LANG_C)
     916                            .dwattr $C$DW$T$107, DW_AT_decl_file("C:/ti/ccsv6/tools/compiler/ti-cgt-arm_5.2.5/include/yval
     917                            .dwattr $C$DW$T$107, DW_AT_decl_line(0xab)
     918                            .dwattr $C$DW$T$107, DW_AT_decl_column(0x1a)
     919                    $C$DW$T$23      .dwtag  DW_TAG_typedef, DW_AT_name("size_t")
     920                            .dwattr $C$DW$T$23, DW_AT_type(*$C$DW$T$11)
     921                            .dwattr $C$DW$T$23, DW_AT_language(DW_LANG_C)
     922                            .dwattr $C$DW$T$23, DW_AT_decl_file("C:/ti/ccsv6/tools/compiler/ti-cgt-arm_5.2.5/include/stdde
     923                            .dwattr $C$DW$T$23, DW_AT_decl_line(0x3a)
     924                            .dwattr $C$DW$T$23, DW_AT_decl_column(0x19)
     925                    $C$DW$T$25      .dwtag  DW_TAG_typedef, DW_AT_name("uint32_t")
     926                            .dwattr $C$DW$T$25, DW_AT_type(*$C$DW$T$11)
     927                            .dwattr $C$DW$T$25, DW_AT_language(DW_LANG_C)
     928                            .dwattr $C$DW$T$25, DW_AT_decl_file("C:/ti/ccsv6/tools/compiler/ti-cgt-arm_5.2.5/include/stdin
     929                            .dwattr $C$DW$T$25, DW_AT_decl_line(0x2f)
     930                            .dwattr $C$DW$T$25, DW_AT_decl_column(0x1c)
     931                    $C$DW$T$47      .dwtag  DW_TAG_typedef, DW_AT_name("StackType_t")
     932                            .dwattr $C$DW$T$47, DW_AT_type(*$C$DW$T$25)
     933                            .dwattr $C$DW$T$47, DW_AT_language(DW_LANG_C)
     934                            .dwattr $C$DW$T$47, DW_AT_decl_file("C:/Users/trilu/Downloads/TI_ARM_Tiva_Projects_EECS_690_Sp
     935                            .dwattr $C$DW$T$47, DW_AT_decl_line(0x68)
     936                            .dwattr $C$DW$T$47, DW_AT_decl_column(0x12)
     937                    $C$DW$T$48      .dwtag  DW_TAG_pointer_type
     938                            .dwattr $C$DW$T$48, DW_AT_type(*$C$DW$T$47)
     939                            .dwattr $C$DW$T$48, DW_AT_address_class(0x20)
     940                    $C$DW$T$34      .dwtag  DW_TAG_typedef, DW_AT_name("TickType_t")
     941                            .dwattr $C$DW$T$34, DW_AT_type(*$C$DW$T$25)
     942                            .dwattr $C$DW$T$34, DW_AT_language(DW_LANG_C)
     943                            .dwattr $C$DW$T$34, DW_AT_decl_file("C:/Users/trilu/Downloads/TI_ARM_Tiva_Projects_EECS_690_Sp
     944                            .dwattr $C$DW$T$34, DW_AT_decl_line(0x70)
     945                            .dwattr $C$DW$T$34, DW_AT_decl_column(0x13)
     946                    $C$DW$T$78      .dwtag  DW_TAG_const_type
     947                            .dwattr $C$DW$T$78, DW_AT_type(*$C$DW$T$34)
     948                    $C$DW$T$29      .dwtag  DW_TAG_typedef, DW_AT_name("UBaseType_t")
     949                            .dwattr $C$DW$T$29, DW_AT_type(*$C$DW$T$25)
     950                            .dwattr $C$DW$T$29, DW_AT_language(DW_LANG_C)
     951                            .dwattr $C$DW$T$29, DW_AT_decl_file("C:/Users/trilu/Downloads/TI_ARM_Tiva_Projects_EECS_690_Sp
     952                            .dwattr $C$DW$T$29, DW_AT_decl_line(0x6a)
     953                            .dwattr $C$DW$T$29, DW_AT_decl_column(0x12)
     954                    $C$DW$T$69      .dwtag  DW_TAG_const_type
     955                            .dwattr $C$DW$T$69, DW_AT_type(*$C$DW$T$29)
     956                    $C$DW$T$110     .dwtag  DW_TAG_typedef, DW_AT_name("portSTACK_TYPE")
     957                            .dwattr $C$DW$T$110, DW_AT_type(*$C$DW$T$25)
     958                            .dwattr $C$DW$T$110, DW_AT_language(DW_LANG_C)
     959                            .dwattr $C$DW$T$110, DW_AT_decl_file("C:/Users/trilu/Downloads/TI_ARM_Tiva_Projects_EECS_690_S
     960                            .dwattr $C$DW$T$110, DW_AT_decl_line(0x65)
     961                            .dwattr $C$DW$T$110, DW_AT_decl_column(0x12)
     962                    $C$DW$T$111     .dwtag  DW_TAG_typedef, DW_AT_name("uint_fast16_t")
     963                            .dwattr $C$DW$T$111, DW_AT_type(*$C$DW$T$25)
TI ARM Assembler PC v5.2.5 Mon May 02 13:42:04 2016

Tools Copyright (c) 1996-2015 Texas Instruments Incorporated
Task_Report.asm                                                      PAGE   19

     964                            .dwattr $C$DW$T$111, DW_AT_language(DW_LANG_C)
     965                            .dwattr $C$DW$T$111, DW_AT_decl_file("C:/ti/ccsv6/tools/compiler/ti-cgt-arm_5.2.5/include/stdi
     966                            .dwattr $C$DW$T$111, DW_AT_decl_line(0x48)
     967                            .dwattr $C$DW$T$111, DW_AT_decl_column(0x16)
     968                    $C$DW$T$112     .dwtag  DW_TAG_typedef, DW_AT_name("uint_fast32_t")
     969                            .dwattr $C$DW$T$112, DW_AT_type(*$C$DW$T$25)
     970                            .dwattr $C$DW$T$112, DW_AT_language(DW_LANG_C)
     971                            .dwattr $C$DW$T$112, DW_AT_decl_file("C:/ti/ccsv6/tools/compiler/ti-cgt-arm_5.2.5/include/stdi
     972                            .dwattr $C$DW$T$112, DW_AT_decl_line(0x4b)
     973                            .dwattr $C$DW$T$112, DW_AT_decl_column(0x16)
     974                    $C$DW$T$113     .dwtag  DW_TAG_typedef, DW_AT_name("uint_fast8_t")
     975                            .dwattr $C$DW$T$113, DW_AT_type(*$C$DW$T$25)
     976                            .dwattr $C$DW$T$113, DW_AT_language(DW_LANG_C)
     977                            .dwattr $C$DW$T$113, DW_AT_decl_file("C:/ti/ccsv6/tools/compiler/ti-cgt-arm_5.2.5/include/stdi
     978                            .dwattr $C$DW$T$113, DW_AT_decl_line(0x46)
     979                            .dwattr $C$DW$T$113, DW_AT_decl_column(0x16)
     980                    $C$DW$T$114     .dwtag  DW_TAG_typedef, DW_AT_name("uint_least32_t")
     981                            .dwattr $C$DW$T$114, DW_AT_type(*$C$DW$T$25)
     982                            .dwattr $C$DW$T$114, DW_AT_language(DW_LANG_C)
     983                            .dwattr $C$DW$T$114, DW_AT_decl_file("C:/ti/ccsv6/tools/compiler/ti-cgt-arm_5.2.5/include/stdi
     984                            .dwattr $C$DW$T$114, DW_AT_decl_line(0x3d)
     985                            .dwattr $C$DW$T$114, DW_AT_decl_column(0x16)
     986                    $C$DW$T$115     .dwtag  DW_TAG_typedef, DW_AT_name("uintptr_t")
     987                            .dwattr $C$DW$T$115, DW_AT_type(*$C$DW$T$11)
     988                            .dwattr $C$DW$T$115, DW_AT_language(DW_LANG_C)
     989                            .dwattr $C$DW$T$115, DW_AT_decl_file("C:/ti/ccsv6/tools/compiler/ti-cgt-arm_5.2.5/include/stdi
     990                            .dwattr $C$DW$T$115, DW_AT_decl_line(0x53)
     991                            .dwattr $C$DW$T$115, DW_AT_decl_column(0x1a)
     992                    $C$DW$T$12      .dwtag  DW_TAG_base_type
     993                            .dwattr $C$DW$T$12, DW_AT_encoding(DW_ATE_signed)
     994                            .dwattr $C$DW$T$12, DW_AT_name("long")
     995                            .dwattr $C$DW$T$12, DW_AT_byte_size(0x04)
     996                    $C$DW$T$116     .dwtag  DW_TAG_typedef, DW_AT_name("_Int32t")
     997                            .dwattr $C$DW$T$116, DW_AT_type(*$C$DW$T$12)
     998                            .dwattr $C$DW$T$116, DW_AT_language(DW_LANG_C)
     999                            .dwattr $C$DW$T$116, DW_AT_decl_file("C:/ti/ccsv6/tools/compiler/ti-cgt-arm_5.2.5/include/yval
    1000                            .dwattr $C$DW$T$116, DW_AT_decl_line(0xa6)
    1001                            .dwattr $C$DW$T$116, DW_AT_decl_column(0x0e)
    1002                    $C$DW$T$117     .dwtag  DW_TAG_typedef, DW_AT_name("fpos_t")
    1003                            .dwattr $C$DW$T$117, DW_AT_type(*$C$DW$T$12)
    1004                            .dwattr $C$DW$T$117, DW_AT_language(DW_LANG_C)
    1005                            .dwattr $C$DW$T$117, DW_AT_decl_file("C:/ti/ccsv6/tools/compiler/ti-cgt-arm_5.2.5/include/stdi
    1006                            .dwattr $C$DW$T$117, DW_AT_decl_line(0x6e)
    1007                            .dwattr $C$DW$T$117, DW_AT_decl_column(0x0e)
    1008                    $C$DW$T$13      .dwtag  DW_TAG_base_type
    1009                            .dwattr $C$DW$T$13, DW_AT_encoding(DW_ATE_unsigned)
    1010                            .dwattr $C$DW$T$13, DW_AT_name("unsigned long")
    1011                            .dwattr $C$DW$T$13, DW_AT_byte_size(0x04)
    1012                    $C$DW$T$118     .dwtag  DW_TAG_typedef, DW_AT_name("_Uint32t")
    1013                            .dwattr $C$DW$T$118, DW_AT_type(*$C$DW$T$13)
    1014                            .dwattr $C$DW$T$118, DW_AT_language(DW_LANG_C)
    1015                            .dwattr $C$DW$T$118, DW_AT_decl_file("C:/ti/ccsv6/tools/compiler/ti-cgt-arm_5.2.5/include/yval
    1016                            .dwattr $C$DW$T$118, DW_AT_decl_line(0xa7)
    1017                            .dwattr $C$DW$T$118, DW_AT_decl_column(0x17)
    1018                    $C$DW$T$14      .dwtag  DW_TAG_base_type
TI ARM Assembler PC v5.2.5 Mon May 02 13:42:04 2016

Tools Copyright (c) 1996-2015 Texas Instruments Incorporated
Task_Report.asm                                                      PAGE   20

    1019                            .dwattr $C$DW$T$14, DW_AT_encoding(DW_ATE_signed)
    1020                            .dwattr $C$DW$T$14, DW_AT_name("long long")
    1021                            .dwattr $C$DW$T$14, DW_AT_byte_size(0x08)
    1022                    $C$DW$T$119     .dwtag  DW_TAG_typedef, DW_AT_name("_Longlong")
    1023                            .dwattr $C$DW$T$119, DW_AT_type(*$C$DW$T$14)
    1024                            .dwattr $C$DW$T$119, DW_AT_language(DW_LANG_C)
    1025                            .dwattr $C$DW$T$119, DW_AT_decl_file("C:/ti/ccsv6/tools/compiler/ti-cgt-arm_5.2.5/include/yval
    1026                            .dwattr $C$DW$T$119, DW_AT_decl_line(0x1b5)
    1027                            .dwattr $C$DW$T$119, DW_AT_decl_column(0x13)
    1028                    $C$DW$T$120     .dwtag  DW_TAG_typedef, DW_AT_name("int64_t")
    1029                            .dwattr $C$DW$T$120, DW_AT_type(*$C$DW$T$14)
    1030                            .dwattr $C$DW$T$120, DW_AT_language(DW_LANG_C)
    1031                            .dwattr $C$DW$T$120, DW_AT_decl_file("C:/ti/ccsv6/tools/compiler/ti-cgt-arm_5.2.5/include/stdi
    1032                            .dwattr $C$DW$T$120, DW_AT_decl_line(0x32)
    1033                            .dwattr $C$DW$T$120, DW_AT_decl_column(0x21)
    1034                    $C$DW$T$121     .dwtag  DW_TAG_typedef, DW_AT_name("int_fast64_t")
    1035                            .dwattr $C$DW$T$121, DW_AT_type(*$C$DW$T$120)
    1036                            .dwattr $C$DW$T$121, DW_AT_language(DW_LANG_C)
    1037                            .dwattr $C$DW$T$121, DW_AT_decl_file("C:/ti/ccsv6/tools/compiler/ti-cgt-arm_5.2.5/include/stdi
    1038                            .dwattr $C$DW$T$121, DW_AT_decl_line(0x4e)
    1039                            .dwattr $C$DW$T$121, DW_AT_decl_column(0x17)
    1040                    $C$DW$T$122     .dwtag  DW_TAG_typedef, DW_AT_name("int_least64_t")
    1041                            .dwattr $C$DW$T$122, DW_AT_type(*$C$DW$T$120)
    1042                            .dwattr $C$DW$T$122, DW_AT_language(DW_LANG_C)
    1043                            .dwattr $C$DW$T$122, DW_AT_decl_file("C:/ti/ccsv6/tools/compiler/ti-cgt-arm_5.2.5/include/stdi
    1044                            .dwattr $C$DW$T$122, DW_AT_decl_line(0x40)
    1045                            .dwattr $C$DW$T$122, DW_AT_decl_column(0x17)
    1046                    $C$DW$T$123     .dwtag  DW_TAG_typedef, DW_AT_name("portDOUBLE")
    1047                            .dwattr $C$DW$T$123, DW_AT_type(*$C$DW$T$120)
    1048                            .dwattr $C$DW$T$123, DW_AT_language(DW_LANG_C)
    1049                            .dwattr $C$DW$T$123, DW_AT_decl_file("C:/Users/trilu/Downloads/TI_ARM_Tiva_Projects_EECS_690_S
    1050                            .dwattr $C$DW$T$123, DW_AT_decl_line(0x62)
    1051                            .dwattr $C$DW$T$123, DW_AT_decl_column(0x12)
    1052                    $C$DW$T$124     .dwtag  DW_TAG_typedef, DW_AT_name("intmax_t")
    1053                            .dwattr $C$DW$T$124, DW_AT_type(*$C$DW$T$14)
    1054                            .dwattr $C$DW$T$124, DW_AT_language(DW_LANG_C)
    1055                            .dwattr $C$DW$T$124, DW_AT_decl_file("C:/ti/ccsv6/tools/compiler/ti-cgt-arm_5.2.5/include/stdi
    1056                            .dwattr $C$DW$T$124, DW_AT_decl_line(0x56)
    1057                            .dwattr $C$DW$T$124, DW_AT_decl_column(0x20)
    1058                    $C$DW$T$15      .dwtag  DW_TAG_base_type
    1059                            .dwattr $C$DW$T$15, DW_AT_encoding(DW_ATE_unsigned)
    1060                            .dwattr $C$DW$T$15, DW_AT_name("unsigned long long")
    1061                            .dwattr $C$DW$T$15, DW_AT_byte_size(0x08)
    1062                    $C$DW$T$125     .dwtag  DW_TAG_typedef, DW_AT_name("_ULonglong")
    1063                            .dwattr $C$DW$T$125, DW_AT_type(*$C$DW$T$15)
    1064                            .dwattr $C$DW$T$125, DW_AT_language(DW_LANG_C)
    1065                            .dwattr $C$DW$T$125, DW_AT_decl_file("C:/ti/ccsv6/tools/compiler/ti-cgt-arm_5.2.5/include/yval
    1066                            .dwattr $C$DW$T$125, DW_AT_decl_line(0x1b6)
    1067                            .dwattr $C$DW$T$125, DW_AT_decl_column(0x14)
    1068                    $C$DW$T$126     .dwtag  DW_TAG_typedef, DW_AT_name("uint64_t")
    1069                            .dwattr $C$DW$T$126, DW_AT_type(*$C$DW$T$15)
    1070                            .dwattr $C$DW$T$126, DW_AT_language(DW_LANG_C)
    1071                            .dwattr $C$DW$T$126, DW_AT_decl_file("C:/ti/ccsv6/tools/compiler/ti-cgt-arm_5.2.5/include/stdi
    1072                            .dwattr $C$DW$T$126, DW_AT_decl_line(0x33)
    1073                            .dwattr $C$DW$T$126, DW_AT_decl_column(0x20)
TI ARM Assembler PC v5.2.5 Mon May 02 13:42:04 2016

Tools Copyright (c) 1996-2015 Texas Instruments Incorporated
Task_Report.asm                                                      PAGE   21

    1074                    $C$DW$T$127     .dwtag  DW_TAG_typedef, DW_AT_name("uint_fast64_t")
    1075                            .dwattr $C$DW$T$127, DW_AT_type(*$C$DW$T$126)
    1076                            .dwattr $C$DW$T$127, DW_AT_language(DW_LANG_C)
    1077                            .dwattr $C$DW$T$127, DW_AT_decl_file("C:/ti/ccsv6/tools/compiler/ti-cgt-arm_5.2.5/include/stdi
    1078                            .dwattr $C$DW$T$127, DW_AT_decl_line(0x4f)
    1079                            .dwattr $C$DW$T$127, DW_AT_decl_column(0x16)
    1080                    $C$DW$T$128     .dwtag  DW_TAG_typedef, DW_AT_name("uint_least64_t")
    1081                            .dwattr $C$DW$T$128, DW_AT_type(*$C$DW$T$126)
    1082                            .dwattr $C$DW$T$128, DW_AT_language(DW_LANG_C)
    1083                            .dwattr $C$DW$T$128, DW_AT_decl_file("C:/ti/ccsv6/tools/compiler/ti-cgt-arm_5.2.5/include/stdi
    1084                            .dwattr $C$DW$T$128, DW_AT_decl_line(0x41)
    1085                            .dwattr $C$DW$T$128, DW_AT_decl_column(0x16)
    1086                    $C$DW$T$129     .dwtag  DW_TAG_typedef, DW_AT_name("uintmax_t")
    1087                            .dwattr $C$DW$T$129, DW_AT_type(*$C$DW$T$15)
    1088                            .dwattr $C$DW$T$129, DW_AT_language(DW_LANG_C)
    1089                            .dwattr $C$DW$T$129, DW_AT_decl_file("C:/ti/ccsv6/tools/compiler/ti-cgt-arm_5.2.5/include/stdi
    1090                            .dwattr $C$DW$T$129, DW_AT_decl_line(0x57)
    1091                            .dwattr $C$DW$T$129, DW_AT_decl_column(0x20)
    1092                    $C$DW$T$16      .dwtag  DW_TAG_base_type
    1093                            .dwattr $C$DW$T$16, DW_AT_encoding(DW_ATE_float)
    1094                            .dwattr $C$DW$T$16, DW_AT_name("float")
    1095                            .dwattr $C$DW$T$16, DW_AT_byte_size(0x04)
    1096                    $C$DW$T$130     .dwtag  DW_TAG_typedef, DW_AT_name("portFLOAT")
    1097                            .dwattr $C$DW$T$130, DW_AT_type(*$C$DW$T$16)
    1098                            .dwattr $C$DW$T$130, DW_AT_language(DW_LANG_C)
    1099                            .dwattr $C$DW$T$130, DW_AT_decl_file("C:/Users/trilu/Downloads/TI_ARM_Tiva_Projects_EECS_690_S
    1100                            .dwattr $C$DW$T$130, DW_AT_decl_line(0x61)
    1101                            .dwattr $C$DW$T$130, DW_AT_decl_column(0x10)
    1102                    $C$DW$T$17      .dwtag  DW_TAG_base_type
    1103                            .dwattr $C$DW$T$17, DW_AT_encoding(DW_ATE_float)
    1104                            .dwattr $C$DW$T$17, DW_AT_name("double")
    1105                            .dwattr $C$DW$T$17, DW_AT_byte_size(0x08)
    1106                    $C$DW$T$18      .dwtag  DW_TAG_base_type
    1107                            .dwattr $C$DW$T$18, DW_AT_encoding(DW_ATE_float)
    1108                            .dwattr $C$DW$T$18, DW_AT_name("long double")
    1109                            .dwattr $C$DW$T$18, DW_AT_byte_size(0x08)
    1110                    $C$DW$T$131     .dwtag  DW_TAG_typedef, DW_AT_name("_Sysch_t")
    1111                            .dwattr $C$DW$T$131, DW_AT_type(*$C$DW$T$6)
    1112                            .dwattr $C$DW$T$131, DW_AT_language(DW_LANG_C)
    1113                            .dwattr $C$DW$T$131, DW_AT_decl_file("C:/ti/ccsv6/tools/compiler/ti-cgt-arm_5.2.5/include/yval
    1114                            .dwattr $C$DW$T$131, DW_AT_decl_line(0x218)
    1115                            .dwattr $C$DW$T$131, DW_AT_decl_column(0x0e)
    1116                    $C$DW$T$43      .dwtag  DW_TAG_const_type
    1117                            .dwattr $C$DW$T$43, DW_AT_type(*$C$DW$T$6)
    1118                    $C$DW$T$44      .dwtag  DW_TAG_pointer_type
    1119                            .dwattr $C$DW$T$44, DW_AT_type(*$C$DW$T$43)
    1120                            .dwattr $C$DW$T$44, DW_AT_address_class(0x20)
    1121                    $C$DW$T$45      .dwtag  DW_TAG_const_type
    1122                            .dwattr $C$DW$T$45, DW_AT_type(*$C$DW$T$44)
    1123                    $C$DW$T$134     .dwtag  DW_TAG_pointer_type
    1124                            .dwattr $C$DW$T$134, DW_AT_type(*$C$DW$T$6)
    1125                            .dwattr $C$DW$T$134, DW_AT_address_class(0x20)
    1126                    $C$DW$T$135     .dwtag  DW_TAG_typedef, DW_AT_name("__builtin_va_list")
    1127                            .dwattr $C$DW$T$135, DW_AT_type(*$C$DW$T$134)
    1128                            .dwattr $C$DW$T$135, DW_AT_language(DW_LANG_C)
TI ARM Assembler PC v5.2.5 Mon May 02 13:42:04 2016

Tools Copyright (c) 1996-2015 Texas Instruments Incorporated
Task_Report.asm                                                      PAGE   22

    1129                            .dwattr $C$DW$T$135, DW_AT_decl_file("../Tasks/Task_Report.c")
    1130                            .dwattr $C$DW$T$135, DW_AT_decl_line(0x42)
    1131                            .dwattr $C$DW$T$135, DW_AT_decl_column(0x01)
    1132                    
    1133                    $C$DW$T$28      .dwtag  DW_TAG_structure_type
    1134                            .dwattr $C$DW$T$28, DW_AT_name("__va_list")
    1135                            .dwattr $C$DW$T$28, DW_AT_byte_size(0x04)
    1136                    $C$DW$65        .dwtag  DW_TAG_member
    1137                            .dwattr $C$DW$65, DW_AT_type(*$C$DW$T$3)
    1138                            .dwattr $C$DW$65, DW_AT_name("__ap")
    1139                            .dwattr $C$DW$65, DW_AT_TI_symbol_name("__ap")
    1140                            .dwattr $C$DW$65, DW_AT_data_member_location[DW_OP_plus_uconst 0x0]
    1141                            .dwattr $C$DW$65, DW_AT_accessibility(DW_ACCESS_public)
    1142                            .dwattr $C$DW$65, DW_AT_decl_file("C:/ti/ccsv6/tools/compiler/ti-cgt-arm_5.2.5/include/stdarg.
    1143                            .dwattr $C$DW$65, DW_AT_decl_line(0x36)
    1144                            .dwattr $C$DW$65, DW_AT_decl_column(0x0c)
    1145                            .dwendtag $C$DW$T$28
    1146                    
    1147                            .dwattr $C$DW$T$28, DW_AT_decl_file("C:/ti/ccsv6/tools/compiler/ti-cgt-arm_5.2.5/include/stdar
    1148                            .dwattr $C$DW$T$28, DW_AT_decl_line(0x35)
    1149                            .dwattr $C$DW$T$28, DW_AT_decl_column(0x10)
    1150                    $C$DW$T$136     .dwtag  DW_TAG_typedef, DW_AT_name("va_list")
    1151                            .dwattr $C$DW$T$136, DW_AT_type(*$C$DW$T$28)
    1152                            .dwattr $C$DW$T$136, DW_AT_language(DW_LANG_C)
    1153                            .dwattr $C$DW$T$136, DW_AT_decl_file("C:/ti/ccsv6/tools/compiler/ti-cgt-arm_5.2.5/include/stda
    1154                            .dwattr $C$DW$T$136, DW_AT_decl_line(0x37)
    1155                            .dwattr $C$DW$T$136, DW_AT_decl_column(0x03)
    1156                    $C$DW$T$137     .dwtag  DW_TAG_typedef, DW_AT_name("_Va_list")
    1157                            .dwattr $C$DW$T$137, DW_AT_type(*$C$DW$T$136)
    1158                            .dwattr $C$DW$T$137, DW_AT_language(DW_LANG_C)
    1159                            .dwattr $C$DW$T$137, DW_AT_decl_file("C:/ti/ccsv6/tools/compiler/ti-cgt-arm_5.2.5/include/yval
    1160                            .dwattr $C$DW$T$137, DW_AT_decl_line(0x1f6)
    1161                            .dwattr $C$DW$T$137, DW_AT_decl_column(0x17)
    1162                    
    1163                    $C$DW$T$33      .dwtag  DW_TAG_structure_type
    1164                            .dwattr $C$DW$T$33, DW_AT_name("xLIST")
    1165                            .dwattr $C$DW$T$33, DW_AT_byte_size(0x14)
    1166                    $C$DW$66        .dwtag  DW_TAG_member
    1167                            .dwattr $C$DW$66, DW_AT_type(*$C$DW$T$29)
    1168                            .dwattr $C$DW$66, DW_AT_name("uxNumberOfItems")
    1169                            .dwattr $C$DW$66, DW_AT_TI_symbol_name("uxNumberOfItems")
    1170                            .dwattr $C$DW$66, DW_AT_data_member_location[DW_OP_plus_uconst 0x0]
    1171                            .dwattr $C$DW$66, DW_AT_accessibility(DW_ACCESS_public)
    1172                            .dwattr $C$DW$66, DW_AT_decl_file("C:\Users\trilu\Downloads\TI_ARM_Tiva_Projects_EECS_690_Sp16
    1173                            .dwattr $C$DW$66, DW_AT_decl_line(0xd0)
    1174                            .dwattr $C$DW$66, DW_AT_decl_column(0x22)
    1175                    $C$DW$67        .dwtag  DW_TAG_member
    1176                            .dwattr $C$DW$67, DW_AT_type(*$C$DW$T$31)
    1177                            .dwattr $C$DW$67, DW_AT_name("pxIndex")
    1178                            .dwattr $C$DW$67, DW_AT_TI_symbol_name("pxIndex")
    1179                            .dwattr $C$DW$67, DW_AT_data_member_location[DW_OP_plus_uconst 0x4]
    1180                            .dwattr $C$DW$67, DW_AT_accessibility(DW_ACCESS_public)
    1181                            .dwattr $C$DW$67, DW_AT_decl_file("C:\Users\trilu\Downloads\TI_ARM_Tiva_Projects_EECS_690_Sp16
    1182                            .dwattr $C$DW$67, DW_AT_decl_line(0xd1)
    1183                            .dwattr $C$DW$67, DW_AT_decl_column(0x23)
TI ARM Assembler PC v5.2.5 Mon May 02 13:42:04 2016

Tools Copyright (c) 1996-2015 Texas Instruments Incorporated
Task_Report.asm                                                      PAGE   23

    1184                    $C$DW$68        .dwtag  DW_TAG_member
    1185                            .dwattr $C$DW$68, DW_AT_type(*$C$DW$T$32)
    1186                            .dwattr $C$DW$68, DW_AT_name("xListEnd")
    1187                            .dwattr $C$DW$68, DW_AT_TI_symbol_name("xListEnd")
    1188                            .dwattr $C$DW$68, DW_AT_data_member_location[DW_OP_plus_uconst 0x8]
    1189                            .dwattr $C$DW$68, DW_AT_accessibility(DW_ACCESS_public)
    1190                            .dwattr $C$DW$68, DW_AT_decl_file("C:\Users\trilu\Downloads\TI_ARM_Tiva_Projects_EECS_690_Sp16
    1191                            .dwattr $C$DW$68, DW_AT_decl_line(0xd2)
    1192                            .dwattr $C$DW$68, DW_AT_decl_column(0x11)
    1193                            .dwendtag $C$DW$T$33
    1194                    
    1195                            .dwattr $C$DW$T$33, DW_AT_decl_file("C:\Users\trilu\Downloads\TI_ARM_Tiva_Projects_EECS_690_Sp
    1196                            .dwattr $C$DW$T$33, DW_AT_decl_line(0xcd)
    1197                            .dwattr $C$DW$T$33, DW_AT_decl_column(0x10)
    1198                    $C$DW$T$138     .dwtag  DW_TAG_typedef, DW_AT_name("List_t")
    1199                            .dwattr $C$DW$T$138, DW_AT_type(*$C$DW$T$33)
    1200                            .dwattr $C$DW$T$138, DW_AT_language(DW_LANG_C)
    1201                            .dwattr $C$DW$T$138, DW_AT_decl_file("C:\Users\trilu\Downloads\TI_ARM_Tiva_Projects_EECS_690_S
    1202                            .dwattr $C$DW$T$138, DW_AT_decl_line(0xd4)
    1203                            .dwattr $C$DW$T$138, DW_AT_decl_column(0x03)
    1204                    
    1205                    $C$DW$T$36      .dwtag  DW_TAG_structure_type
    1206                            .dwattr $C$DW$T$36, DW_AT_name("xLIST_ITEM")
    1207                            .dwattr $C$DW$T$36, DW_AT_byte_size(0x14)
    1208                    $C$DW$69        .dwtag  DW_TAG_member
    1209                            .dwattr $C$DW$69, DW_AT_type(*$C$DW$T$34)
    1210                            .dwattr $C$DW$69, DW_AT_name("xItemValue")
    1211                            .dwattr $C$DW$69, DW_AT_TI_symbol_name("xItemValue")
    1212                            .dwattr $C$DW$69, DW_AT_data_member_location[DW_OP_plus_uconst 0x0]
    1213                            .dwattr $C$DW$69, DW_AT_accessibility(DW_ACCESS_public)
    1214                            .dwattr $C$DW$69, DW_AT_decl_file("C:\Users\trilu\Downloads\TI_ARM_Tiva_Projects_EECS_690_Sp16
    1215                            .dwattr $C$DW$69, DW_AT_decl_line(0xb8)
    1216                            .dwattr $C$DW$69, DW_AT_decl_column(0x21)
    1217                    $C$DW$70        .dwtag  DW_TAG_member
    1218                            .dwattr $C$DW$70, DW_AT_type(*$C$DW$T$35)
    1219                            .dwattr $C$DW$70, DW_AT_name("pxNext")
    1220                            .dwattr $C$DW$70, DW_AT_TI_symbol_name("pxNext")
    1221                            .dwattr $C$DW$70, DW_AT_data_member_location[DW_OP_plus_uconst 0x4]
    1222                            .dwattr $C$DW$70, DW_AT_accessibility(DW_ACCESS_public)
    1223                            .dwattr $C$DW$70, DW_AT_decl_file("C:\Users\trilu\Downloads\TI_ARM_Tiva_Projects_EECS_690_Sp16
    1224                            .dwattr $C$DW$70, DW_AT_decl_line(0xb9)
    1225                            .dwattr $C$DW$70, DW_AT_decl_column(0x2a)
    1226                    $C$DW$71        .dwtag  DW_TAG_member
    1227                            .dwattr $C$DW$71, DW_AT_type(*$C$DW$T$35)
    1228                            .dwattr $C$DW$71, DW_AT_name("pxPrevious")
    1229                            .dwattr $C$DW$71, DW_AT_TI_symbol_name("pxPrevious")
    1230                            .dwattr $C$DW$71, DW_AT_data_member_location[DW_OP_plus_uconst 0x8]
    1231                            .dwattr $C$DW$71, DW_AT_accessibility(DW_ACCESS_public)
    1232                            .dwattr $C$DW$71, DW_AT_decl_file("C:\Users\trilu\Downloads\TI_ARM_Tiva_Projects_EECS_690_Sp16
    1233                            .dwattr $C$DW$71, DW_AT_decl_line(0xba)
    1234                            .dwattr $C$DW$71, DW_AT_decl_column(0x2a)
    1235                    $C$DW$72        .dwtag  DW_TAG_member
    1236                            .dwattr $C$DW$72, DW_AT_type(*$C$DW$T$3)
    1237                            .dwattr $C$DW$72, DW_AT_name("pvOwner")
    1238                            .dwattr $C$DW$72, DW_AT_TI_symbol_name("pvOwner")
TI ARM Assembler PC v5.2.5 Mon May 02 13:42:04 2016

Tools Copyright (c) 1996-2015 Texas Instruments Incorporated
Task_Report.asm                                                      PAGE   24

    1239                            .dwattr $C$DW$72, DW_AT_data_member_location[DW_OP_plus_uconst 0xc]
    1240                            .dwattr $C$DW$72, DW_AT_accessibility(DW_ACCESS_public)
    1241                            .dwattr $C$DW$72, DW_AT_decl_file("C:\Users\trilu\Downloads\TI_ARM_Tiva_Projects_EECS_690_Sp16
    1242                            .dwattr $C$DW$72, DW_AT_decl_line(0xbb)
    1243                            .dwattr $C$DW$72, DW_AT_decl_column(0x09)
    1244                    $C$DW$73        .dwtag  DW_TAG_member
    1245                            .dwattr $C$DW$73, DW_AT_type(*$C$DW$T$3)
    1246                            .dwattr $C$DW$73, DW_AT_name("pvContainer")
    1247                            .dwattr $C$DW$73, DW_AT_TI_symbol_name("pvContainer")
    1248                            .dwattr $C$DW$73, DW_AT_data_member_location[DW_OP_plus_uconst 0x10]
    1249                            .dwattr $C$DW$73, DW_AT_accessibility(DW_ACCESS_public)
    1250                            .dwattr $C$DW$73, DW_AT_decl_file("C:\Users\trilu\Downloads\TI_ARM_Tiva_Projects_EECS_690_Sp16
    1251                            .dwattr $C$DW$73, DW_AT_decl_line(0xbc)
    1252                            .dwattr $C$DW$73, DW_AT_decl_column(0x1d)
    1253                            .dwendtag $C$DW$T$36
    1254                    
    1255                            .dwattr $C$DW$T$36, DW_AT_decl_file("C:\Users\trilu\Downloads\TI_ARM_Tiva_Projects_EECS_690_Sp
    1256                            .dwattr $C$DW$T$36, DW_AT_decl_line(0xb5)
    1257                            .dwattr $C$DW$T$36, DW_AT_decl_column(0x08)
    1258                    $C$DW$T$30      .dwtag  DW_TAG_typedef, DW_AT_name("ListItem_t")
    1259                            .dwattr $C$DW$T$30, DW_AT_type(*$C$DW$T$36)
    1260                            .dwattr $C$DW$T$30, DW_AT_language(DW_LANG_C)
    1261                            .dwattr $C$DW$T$30, DW_AT_decl_file("C:\Users\trilu\Downloads\TI_ARM_Tiva_Projects_EECS_690_Sp
    1262                            .dwattr $C$DW$T$30, DW_AT_decl_line(0xbf)
    1263                            .dwattr $C$DW$T$30, DW_AT_decl_column(0x1b)
    1264                    $C$DW$T$31      .dwtag  DW_TAG_pointer_type
    1265                            .dwattr $C$DW$T$31, DW_AT_type(*$C$DW$T$30)
    1266                            .dwattr $C$DW$T$31, DW_AT_address_class(0x20)
    1267                    $C$DW$T$35      .dwtag  DW_TAG_pointer_type
    1268                            .dwattr $C$DW$T$35, DW_AT_type(*$C$DW$T$36)
    1269                            .dwattr $C$DW$T$35, DW_AT_address_class(0x20)
    1270                    
    1271                    $C$DW$T$37      .dwtag  DW_TAG_structure_type
    1272                            .dwattr $C$DW$T$37, DW_AT_name("xMEMORY_REGION")
    1273                            .dwattr $C$DW$T$37, DW_AT_byte_size(0x0c)
    1274                    $C$DW$74        .dwtag  DW_TAG_member
    1275                            .dwattr $C$DW$74, DW_AT_type(*$C$DW$T$3)
    1276                            .dwattr $C$DW$74, DW_AT_name("pvBaseAddress")
    1277                            .dwattr $C$DW$74, DW_AT_TI_symbol_name("pvBaseAddress")
    1278                            .dwattr $C$DW$74, DW_AT_data_member_location[DW_OP_plus_uconst 0x0]
    1279                            .dwattr $C$DW$74, DW_AT_accessibility(DW_ACCESS_public)
    1280                            .dwattr $C$DW$74, DW_AT_decl_file("C:/Users/trilu/Downloads/TI_ARM_Tiva_Projects_EECS_690_Sp16
    1281                            .dwattr $C$DW$74, DW_AT_decl_line(0x91)
    1282                            .dwattr $C$DW$74, DW_AT_decl_column(0x08)
    1283                    $C$DW$75        .dwtag  DW_TAG_member
    1284                            .dwattr $C$DW$75, DW_AT_type(*$C$DW$T$25)
    1285                            .dwattr $C$DW$75, DW_AT_name("ulLengthInBytes")
    1286                            .dwattr $C$DW$75, DW_AT_TI_symbol_name("ulLengthInBytes")
    1287                            .dwattr $C$DW$75, DW_AT_data_member_location[DW_OP_plus_uconst 0x4]
    1288                            .dwattr $C$DW$75, DW_AT_accessibility(DW_ACCESS_public)
    1289                            .dwattr $C$DW$75, DW_AT_decl_file("C:/Users/trilu/Downloads/TI_ARM_Tiva_Projects_EECS_690_Sp16
    1290                            .dwattr $C$DW$75, DW_AT_decl_line(0x92)
    1291                            .dwattr $C$DW$75, DW_AT_decl_column(0x0b)
    1292                    $C$DW$76        .dwtag  DW_TAG_member
    1293                            .dwattr $C$DW$76, DW_AT_type(*$C$DW$T$25)
TI ARM Assembler PC v5.2.5 Mon May 02 13:42:04 2016

Tools Copyright (c) 1996-2015 Texas Instruments Incorporated
Task_Report.asm                                                      PAGE   25

    1294                            .dwattr $C$DW$76, DW_AT_name("ulParameters")
    1295                            .dwattr $C$DW$76, DW_AT_TI_symbol_name("ulParameters")
    1296                            .dwattr $C$DW$76, DW_AT_data_member_location[DW_OP_plus_uconst 0x8]
    1297                            .dwattr $C$DW$76, DW_AT_accessibility(DW_ACCESS_public)
    1298                            .dwattr $C$DW$76, DW_AT_decl_file("C:/Users/trilu/Downloads/TI_ARM_Tiva_Projects_EECS_690_Sp16
    1299                            .dwattr $C$DW$76, DW_AT_decl_line(0x93)
    1300                            .dwattr $C$DW$76, DW_AT_decl_column(0x0b)
    1301                            .dwendtag $C$DW$T$37
    1302                    
    1303                            .dwattr $C$DW$T$37, DW_AT_decl_file("C:/Users/trilu/Downloads/TI_ARM_Tiva_Projects_EECS_690_Sp
    1304                            .dwattr $C$DW$T$37, DW_AT_decl_line(0x8f)
    1305                            .dwattr $C$DW$T$37, DW_AT_decl_column(0x10)
    1306                    $C$DW$T$49      .dwtag  DW_TAG_typedef, DW_AT_name("MemoryRegion_t")
    1307                            .dwattr $C$DW$T$49, DW_AT_type(*$C$DW$T$37)
    1308                            .dwattr $C$DW$T$49, DW_AT_language(DW_LANG_C)
    1309                            .dwattr $C$DW$T$49, DW_AT_decl_file("C:/Users/trilu/Downloads/TI_ARM_Tiva_Projects_EECS_690_Sp
    1310                            .dwattr $C$DW$T$49, DW_AT_decl_line(0x94)
    1311                            .dwattr $C$DW$T$49, DW_AT_decl_column(0x03)
    1312                    
    1313                    $C$DW$T$50      .dwtag  DW_TAG_array_type
    1314                            .dwattr $C$DW$T$50, DW_AT_type(*$C$DW$T$49)
    1315                            .dwattr $C$DW$T$50, DW_AT_language(DW_LANG_C)
    1316                            .dwattr $C$DW$T$50, DW_AT_byte_size(0x0c)
    1317                    $C$DW$77        .dwtag  DW_TAG_subrange_type
    1318                            .dwattr $C$DW$77, DW_AT_upper_bound(0x00)
    1319                            .dwendtag $C$DW$T$50
    1320                    
    1321                    
    1322                    $C$DW$T$38      .dwtag  DW_TAG_structure_type
    1323                            .dwattr $C$DW$T$38, DW_AT_name("xMINI_LIST_ITEM")
    1324                            .dwattr $C$DW$T$38, DW_AT_byte_size(0x0c)
    1325                    $C$DW$78        .dwtag  DW_TAG_member
    1326                            .dwattr $C$DW$78, DW_AT_type(*$C$DW$T$34)
    1327                            .dwattr $C$DW$78, DW_AT_name("xItemValue")
    1328                            .dwattr $C$DW$78, DW_AT_TI_symbol_name("xItemValue")
    1329                            .dwattr $C$DW$78, DW_AT_data_member_location[DW_OP_plus_uconst 0x0]
    1330                            .dwattr $C$DW$78, DW_AT_accessibility(DW_ACCESS_public)
    1331                            .dwattr $C$DW$78, DW_AT_decl_file("C:\Users\trilu\Downloads\TI_ARM_Tiva_Projects_EECS_690_Sp16
    1332                            .dwattr $C$DW$78, DW_AT_decl_line(0xc4)
    1333                            .dwattr $C$DW$78, DW_AT_decl_column(0x21)
    1334                    $C$DW$79        .dwtag  DW_TAG_member
    1335                            .dwattr $C$DW$79, DW_AT_type(*$C$DW$T$35)
    1336                            .dwattr $C$DW$79, DW_AT_name("pxNext")
    1337                            .dwattr $C$DW$79, DW_AT_TI_symbol_name("pxNext")
    1338                            .dwattr $C$DW$79, DW_AT_data_member_location[DW_OP_plus_uconst 0x4]
    1339                            .dwattr $C$DW$79, DW_AT_accessibility(DW_ACCESS_public)
    1340                            .dwattr $C$DW$79, DW_AT_decl_file("C:\Users\trilu\Downloads\TI_ARM_Tiva_Projects_EECS_690_Sp16
    1341                            .dwattr $C$DW$79, DW_AT_decl_line(0xc5)
    1342                            .dwattr $C$DW$79, DW_AT_decl_column(0x2a)
    1343                    $C$DW$80        .dwtag  DW_TAG_member
    1344                            .dwattr $C$DW$80, DW_AT_type(*$C$DW$T$35)
    1345                            .dwattr $C$DW$80, DW_AT_name("pxPrevious")
    1346                            .dwattr $C$DW$80, DW_AT_TI_symbol_name("pxPrevious")
    1347                            .dwattr $C$DW$80, DW_AT_data_member_location[DW_OP_plus_uconst 0x8]
    1348                            .dwattr $C$DW$80, DW_AT_accessibility(DW_ACCESS_public)
TI ARM Assembler PC v5.2.5 Mon May 02 13:42:04 2016

Tools Copyright (c) 1996-2015 Texas Instruments Incorporated
Task_Report.asm                                                      PAGE   26

    1349                            .dwattr $C$DW$80, DW_AT_decl_file("C:\Users\trilu\Downloads\TI_ARM_Tiva_Projects_EECS_690_Sp16
    1350                            .dwattr $C$DW$80, DW_AT_decl_line(0xc6)
    1351                            .dwattr $C$DW$80, DW_AT_decl_column(0x2a)
    1352                            .dwendtag $C$DW$T$38
    1353                    
    1354                            .dwattr $C$DW$T$38, DW_AT_decl_file("C:\Users\trilu\Downloads\TI_ARM_Tiva_Projects_EECS_690_Sp
    1355                            .dwattr $C$DW$T$38, DW_AT_decl_line(0xc1)
    1356                            .dwattr $C$DW$T$38, DW_AT_decl_column(0x08)
    1357                    $C$DW$T$32      .dwtag  DW_TAG_typedef, DW_AT_name("MiniListItem_t")
    1358                            .dwattr $C$DW$T$32, DW_AT_type(*$C$DW$T$38)
    1359                            .dwattr $C$DW$T$32, DW_AT_language(DW_LANG_C)
    1360                            .dwattr $C$DW$T$32, DW_AT_decl_file("C:\Users\trilu\Downloads\TI_ARM_Tiva_Projects_EECS_690_Sp
    1361                            .dwattr $C$DW$T$32, DW_AT_decl_line(0xc8)
    1362                            .dwattr $C$DW$T$32, DW_AT_decl_column(0x20)
    1363                    
    1364                    $C$DW$T$51      .dwtag  DW_TAG_structure_type
    1365                            .dwattr $C$DW$T$51, DW_AT_name("xTASK_PARAMETERS")
    1366                            .dwattr $C$DW$T$51, DW_AT_byte_size(0x24)
    1367                    $C$DW$81        .dwtag  DW_TAG_member
    1368                            .dwattr $C$DW$81, DW_AT_type(*$C$DW$T$41)
    1369                            .dwattr $C$DW$81, DW_AT_name("pvTaskCode")
    1370                            .dwattr $C$DW$81, DW_AT_TI_symbol_name("pvTaskCode")
    1371                            .dwattr $C$DW$81, DW_AT_data_member_location[DW_OP_plus_uconst 0x0]
    1372                            .dwattr $C$DW$81, DW_AT_accessibility(DW_ACCESS_public)
    1373                            .dwattr $C$DW$81, DW_AT_decl_file("C:/Users/trilu/Downloads/TI_ARM_Tiva_Projects_EECS_690_Sp16
    1374                            .dwattr $C$DW$81, DW_AT_decl_line(0x9b)
    1375                            .dwattr $C$DW$81, DW_AT_decl_column(0x11)
    1376                    $C$DW$82        .dwtag  DW_TAG_member
    1377                            .dwattr $C$DW$82, DW_AT_type(*$C$DW$T$45)
    1378                            .dwattr $C$DW$82, DW_AT_name("pcName")
    1379                            .dwattr $C$DW$82, DW_AT_TI_symbol_name("pcName")
    1380                            .dwattr $C$DW$82, DW_AT_data_member_location[DW_OP_plus_uconst 0x4]
    1381                            .dwattr $C$DW$82, DW_AT_accessibility(DW_ACCESS_public)
    1382                            .dwattr $C$DW$82, DW_AT_decl_file("C:/Users/trilu/Downloads/TI_ARM_Tiva_Projects_EECS_690_Sp16
    1383                            .dwattr $C$DW$82, DW_AT_decl_line(0x9c)
    1384                            .dwattr $C$DW$82, DW_AT_decl_column(0x15)
    1385                    $C$DW$83        .dwtag  DW_TAG_member
    1386                            .dwattr $C$DW$83, DW_AT_type(*$C$DW$T$46)
    1387                            .dwattr $C$DW$83, DW_AT_name("usStackDepth")
    1388                            .dwattr $C$DW$83, DW_AT_TI_symbol_name("usStackDepth")
    1389                            .dwattr $C$DW$83, DW_AT_data_member_location[DW_OP_plus_uconst 0x8]
    1390                            .dwattr $C$DW$83, DW_AT_accessibility(DW_ACCESS_public)
    1391                            .dwattr $C$DW$83, DW_AT_decl_file("C:/Users/trilu/Downloads/TI_ARM_Tiva_Projects_EECS_690_Sp16
    1392                            .dwattr $C$DW$83, DW_AT_decl_line(0x9d)
    1393                            .dwattr $C$DW$83, DW_AT_decl_column(0x0b)
    1394                    $C$DW$84        .dwtag  DW_TAG_member
    1395                            .dwattr $C$DW$84, DW_AT_type(*$C$DW$T$3)
    1396                            .dwattr $C$DW$84, DW_AT_name("pvParameters")
    1397                            .dwattr $C$DW$84, DW_AT_TI_symbol_name("pvParameters")
    1398                            .dwattr $C$DW$84, DW_AT_data_member_location[DW_OP_plus_uconst 0xc]
    1399                            .dwattr $C$DW$84, DW_AT_accessibility(DW_ACCESS_public)
    1400                            .dwattr $C$DW$84, DW_AT_decl_file("C:/Users/trilu/Downloads/TI_ARM_Tiva_Projects_EECS_690_Sp16
    1401                            .dwattr $C$DW$84, DW_AT_decl_line(0x9e)
    1402                            .dwattr $C$DW$84, DW_AT_decl_column(0x08)
    1403                    $C$DW$85        .dwtag  DW_TAG_member
TI ARM Assembler PC v5.2.5 Mon May 02 13:42:04 2016

Tools Copyright (c) 1996-2015 Texas Instruments Incorporated
Task_Report.asm                                                      PAGE   27

    1404                            .dwattr $C$DW$85, DW_AT_type(*$C$DW$T$29)
    1405                            .dwattr $C$DW$85, DW_AT_name("uxPriority")
    1406                            .dwattr $C$DW$85, DW_AT_TI_symbol_name("uxPriority")
    1407                            .dwattr $C$DW$85, DW_AT_data_member_location[DW_OP_plus_uconst 0x10]
    1408                            .dwattr $C$DW$85, DW_AT_accessibility(DW_ACCESS_public)
    1409                            .dwattr $C$DW$85, DW_AT_decl_file("C:/Users/trilu/Downloads/TI_ARM_Tiva_Projects_EECS_690_Sp16
    1410                            .dwattr $C$DW$85, DW_AT_decl_line(0x9f)
    1411                            .dwattr $C$DW$85, DW_AT_decl_column(0x0e)
    1412                    $C$DW$86        .dwtag  DW_TAG_member
    1413                            .dwattr $C$DW$86, DW_AT_type(*$C$DW$T$48)
    1414                            .dwattr $C$DW$86, DW_AT_name("puxStackBuffer")
    1415                            .dwattr $C$DW$86, DW_AT_TI_symbol_name("puxStackBuffer")
    1416                            .dwattr $C$DW$86, DW_AT_data_member_location[DW_OP_plus_uconst 0x14]
    1417                            .dwattr $C$DW$86, DW_AT_accessibility(DW_ACCESS_public)
    1418                            .dwattr $C$DW$86, DW_AT_decl_file("C:/Users/trilu/Downloads/TI_ARM_Tiva_Projects_EECS_690_Sp16
    1419                            .dwattr $C$DW$86, DW_AT_decl_line(0xa0)
    1420                            .dwattr $C$DW$86, DW_AT_decl_column(0x0f)
    1421                    $C$DW$87        .dwtag  DW_TAG_member
    1422                            .dwattr $C$DW$87, DW_AT_type(*$C$DW$T$50)
    1423                            .dwattr $C$DW$87, DW_AT_name("xRegions")
    1424                            .dwattr $C$DW$87, DW_AT_TI_symbol_name("xRegions")
    1425                            .dwattr $C$DW$87, DW_AT_data_member_location[DW_OP_plus_uconst 0x18]
    1426                            .dwattr $C$DW$87, DW_AT_accessibility(DW_ACCESS_public)
    1427                            .dwattr $C$DW$87, DW_AT_decl_file("C:/Users/trilu/Downloads/TI_ARM_Tiva_Projects_EECS_690_Sp16
    1428                            .dwattr $C$DW$87, DW_AT_decl_line(0xa1)
    1429                            .dwattr $C$DW$87, DW_AT_decl_column(0x11)
    1430                            .dwendtag $C$DW$T$51
    1431                    
    1432                            .dwattr $C$DW$T$51, DW_AT_decl_file("C:/Users/trilu/Downloads/TI_ARM_Tiva_Projects_EECS_690_Sp
    1433                            .dwattr $C$DW$T$51, DW_AT_decl_line(0x99)
    1434                            .dwattr $C$DW$T$51, DW_AT_decl_column(0x10)
    1435                    $C$DW$T$139     .dwtag  DW_TAG_typedef, DW_AT_name("TaskParameters_t")
    1436                            .dwattr $C$DW$T$139, DW_AT_type(*$C$DW$T$51)
    1437                            .dwattr $C$DW$T$139, DW_AT_language(DW_LANG_C)
    1438                            .dwattr $C$DW$T$139, DW_AT_decl_file("C:/Users/trilu/Downloads/TI_ARM_Tiva_Projects_EECS_690_S
    1439                            .dwattr $C$DW$T$139, DW_AT_decl_line(0xa2)
    1440                            .dwattr $C$DW$T$139, DW_AT_decl_column(0x03)
    1441                    
    1442                    $C$DW$T$55      .dwtag  DW_TAG_structure_type
    1443                            .dwattr $C$DW$T$55, DW_AT_name("xTASK_STATUS")
    1444                            .dwattr $C$DW$T$55, DW_AT_byte_size(0x20)
    1445                    $C$DW$88        .dwtag  DW_TAG_member
    1446                            .dwattr $C$DW$88, DW_AT_type(*$C$DW$T$52)
    1447                            .dwattr $C$DW$88, DW_AT_name("xHandle")
    1448                            .dwattr $C$DW$88, DW_AT_TI_symbol_name("xHandle")
    1449                            .dwattr $C$DW$88, DW_AT_data_member_location[DW_OP_plus_uconst 0x0]
    1450                            .dwattr $C$DW$88, DW_AT_accessibility(DW_ACCESS_public)
    1451                            .dwattr $C$DW$88, DW_AT_decl_file("C:/Users/trilu/Downloads/TI_ARM_Tiva_Projects_EECS_690_Sp16
    1452                            .dwattr $C$DW$88, DW_AT_decl_line(0xa8)
    1453                            .dwattr $C$DW$88, DW_AT_decl_column(0x0f)
    1454                    $C$DW$89        .dwtag  DW_TAG_member
    1455                            .dwattr $C$DW$89, DW_AT_type(*$C$DW$T$44)
    1456                            .dwattr $C$DW$89, DW_AT_name("pcTaskName")
    1457                            .dwattr $C$DW$89, DW_AT_TI_symbol_name("pcTaskName")
    1458                            .dwattr $C$DW$89, DW_AT_data_member_location[DW_OP_plus_uconst 0x4]
TI ARM Assembler PC v5.2.5 Mon May 02 13:42:04 2016

Tools Copyright (c) 1996-2015 Texas Instruments Incorporated
Task_Report.asm                                                      PAGE   28

    1459                            .dwattr $C$DW$89, DW_AT_accessibility(DW_ACCESS_public)
    1460                            .dwattr $C$DW$89, DW_AT_decl_file("C:/Users/trilu/Downloads/TI_ARM_Tiva_Projects_EECS_690_Sp16
    1461                            .dwattr $C$DW$89, DW_AT_decl_line(0xa9)
    1462                            .dwattr $C$DW$89, DW_AT_decl_column(0x0e)
    1463                    $C$DW$90        .dwtag  DW_TAG_member
    1464                            .dwattr $C$DW$90, DW_AT_type(*$C$DW$T$29)
    1465                            .dwattr $C$DW$90, DW_AT_name("xTaskNumber")
    1466                            .dwattr $C$DW$90, DW_AT_TI_symbol_name("xTaskNumber")
    1467                            .dwattr $C$DW$90, DW_AT_data_member_location[DW_OP_plus_uconst 0x8]
    1468                            .dwattr $C$DW$90, DW_AT_accessibility(DW_ACCESS_public)
    1469                            .dwattr $C$DW$90, DW_AT_decl_file("C:/Users/trilu/Downloads/TI_ARM_Tiva_Projects_EECS_690_Sp16
    1470                            .dwattr $C$DW$90, DW_AT_decl_line(0xaa)
    1471                            .dwattr $C$DW$90, DW_AT_decl_column(0x0e)
    1472                    $C$DW$91        .dwtag  DW_TAG_member
    1473                            .dwattr $C$DW$91, DW_AT_type(*$C$DW$T$54)
    1474                            .dwattr $C$DW$91, DW_AT_name("eCurrentState")
    1475                            .dwattr $C$DW$91, DW_AT_TI_symbol_name("eCurrentState")
    1476                            .dwattr $C$DW$91, DW_AT_data_member_location[DW_OP_plus_uconst 0xc]
    1477                            .dwattr $C$DW$91, DW_AT_accessibility(DW_ACCESS_public)
    1478                            .dwattr $C$DW$91, DW_AT_decl_file("C:/Users/trilu/Downloads/TI_ARM_Tiva_Projects_EECS_690_Sp16
    1479                            .dwattr $C$DW$91, DW_AT_decl_line(0xab)
    1480                            .dwattr $C$DW$91, DW_AT_decl_column(0x0d)
    1481                    $C$DW$92        .dwtag  DW_TAG_member
    1482                            .dwattr $C$DW$92, DW_AT_type(*$C$DW$T$29)
    1483                            .dwattr $C$DW$92, DW_AT_name("uxCurrentPriority")
    1484                            .dwattr $C$DW$92, DW_AT_TI_symbol_name("uxCurrentPriority")
    1485                            .dwattr $C$DW$92, DW_AT_data_member_location[DW_OP_plus_uconst 0x10]
    1486                            .dwattr $C$DW$92, DW_AT_accessibility(DW_ACCESS_public)
    1487                            .dwattr $C$DW$92, DW_AT_decl_file("C:/Users/trilu/Downloads/TI_ARM_Tiva_Projects_EECS_690_Sp16
    1488                            .dwattr $C$DW$92, DW_AT_decl_line(0xac)
    1489                            .dwattr $C$DW$92, DW_AT_decl_column(0x0e)
    1490                    $C$DW$93        .dwtag  DW_TAG_member
    1491                            .dwattr $C$DW$93, DW_AT_type(*$C$DW$T$29)
    1492                            .dwattr $C$DW$93, DW_AT_name("uxBasePriority")
    1493                            .dwattr $C$DW$93, DW_AT_TI_symbol_name("uxBasePriority")
    1494                            .dwattr $C$DW$93, DW_AT_data_member_location[DW_OP_plus_uconst 0x14]
    1495                            .dwattr $C$DW$93, DW_AT_accessibility(DW_ACCESS_public)
    1496                            .dwattr $C$DW$93, DW_AT_decl_file("C:/Users/trilu/Downloads/TI_ARM_Tiva_Projects_EECS_690_Sp16
    1497                            .dwattr $C$DW$93, DW_AT_decl_line(0xad)
    1498                            .dwattr $C$DW$93, DW_AT_decl_column(0x0e)
    1499                    $C$DW$94        .dwtag  DW_TAG_member
    1500                            .dwattr $C$DW$94, DW_AT_type(*$C$DW$T$25)
    1501                            .dwattr $C$DW$94, DW_AT_name("ulRunTimeCounter")
    1502                            .dwattr $C$DW$94, DW_AT_TI_symbol_name("ulRunTimeCounter")
    1503                            .dwattr $C$DW$94, DW_AT_data_member_location[DW_OP_plus_uconst 0x18]
    1504                            .dwattr $C$DW$94, DW_AT_accessibility(DW_ACCESS_public)
    1505                            .dwattr $C$DW$94, DW_AT_decl_file("C:/Users/trilu/Downloads/TI_ARM_Tiva_Projects_EECS_690_Sp16
    1506                            .dwattr $C$DW$94, DW_AT_decl_line(0xae)
    1507                            .dwattr $C$DW$94, DW_AT_decl_column(0x0b)
    1508                    $C$DW$95        .dwtag  DW_TAG_member
    1509                            .dwattr $C$DW$95, DW_AT_type(*$C$DW$T$46)
    1510                            .dwattr $C$DW$95, DW_AT_name("usStackHighWaterMark")
    1511                            .dwattr $C$DW$95, DW_AT_TI_symbol_name("usStackHighWaterMark")
    1512                            .dwattr $C$DW$95, DW_AT_data_member_location[DW_OP_plus_uconst 0x1c]
    1513                            .dwattr $C$DW$95, DW_AT_accessibility(DW_ACCESS_public)
TI ARM Assembler PC v5.2.5 Mon May 02 13:42:04 2016

Tools Copyright (c) 1996-2015 Texas Instruments Incorporated
Task_Report.asm                                                      PAGE   29

    1514                            .dwattr $C$DW$95, DW_AT_decl_file("C:/Users/trilu/Downloads/TI_ARM_Tiva_Projects_EECS_690_Sp16
    1515                            .dwattr $C$DW$95, DW_AT_decl_line(0xaf)
    1516                            .dwattr $C$DW$95, DW_AT_decl_column(0x0b)
    1517                            .dwendtag $C$DW$T$55
    1518                    
    1519                            .dwattr $C$DW$T$55, DW_AT_decl_file("C:/Users/trilu/Downloads/TI_ARM_Tiva_Projects_EECS_690_Sp
    1520                            .dwattr $C$DW$T$55, DW_AT_decl_line(0xa6)
    1521                            .dwattr $C$DW$T$55, DW_AT_decl_column(0x10)
    1522                    $C$DW$T$140     .dwtag  DW_TAG_typedef, DW_AT_name("TaskStatus_t")
    1523                            .dwattr $C$DW$T$140, DW_AT_type(*$C$DW$T$55)
    1524                            .dwattr $C$DW$T$140, DW_AT_language(DW_LANG_C)
    1525                            .dwattr $C$DW$T$140, DW_AT_decl_file("C:/Users/trilu/Downloads/TI_ARM_Tiva_Projects_EECS_690_S
    1526                            .dwattr $C$DW$T$140, DW_AT_decl_line(0xb0)
    1527                            .dwattr $C$DW$T$140, DW_AT_decl_column(0x03)
    1528                    
    1529                    $C$DW$T$58      .dwtag  DW_TAG_structure_type
    1530                            .dwattr $C$DW$T$58, DW_AT_name("xTIME_OUT")
    1531                            .dwattr $C$DW$T$58, DW_AT_byte_size(0x08)
    1532                    $C$DW$96        .dwtag  DW_TAG_member
    1533                            .dwattr $C$DW$96, DW_AT_type(*$C$DW$T$57)
    1534                            .dwattr $C$DW$96, DW_AT_name("xOverflowCount")
    1535                            .dwattr $C$DW$96, DW_AT_TI_symbol_name("xOverflowCount")
    1536                            .dwattr $C$DW$96, DW_AT_data_member_location[DW_OP_plus_uconst 0x0]
    1537                            .dwattr $C$DW$96, DW_AT_accessibility(DW_ACCESS_public)
    1538                            .dwattr $C$DW$96, DW_AT_decl_file("C:/Users/trilu/Downloads/TI_ARM_Tiva_Projects_EECS_690_Sp16
    1539                            .dwattr $C$DW$96, DW_AT_decl_line(0x88)
    1540                            .dwattr $C$DW$96, DW_AT_decl_column(0x0d)
    1541                    $C$DW$97        .dwtag  DW_TAG_member
    1542                            .dwattr $C$DW$97, DW_AT_type(*$C$DW$T$34)
    1543                            .dwattr $C$DW$97, DW_AT_name("xTimeOnEntering")
    1544                            .dwattr $C$DW$97, DW_AT_TI_symbol_name("xTimeOnEntering")
    1545                            .dwattr $C$DW$97, DW_AT_data_member_location[DW_OP_plus_uconst 0x4]
    1546                            .dwattr $C$DW$97, DW_AT_accessibility(DW_ACCESS_public)
    1547                            .dwattr $C$DW$97, DW_AT_decl_file("C:/Users/trilu/Downloads/TI_ARM_Tiva_Projects_EECS_690_Sp16
    1548                            .dwattr $C$DW$97, DW_AT_decl_line(0x89)
    1549                            .dwattr $C$DW$97, DW_AT_decl_column(0x0d)
    1550                            .dwendtag $C$DW$T$58
    1551                    
    1552                            .dwattr $C$DW$T$58, DW_AT_decl_file("C:/Users/trilu/Downloads/TI_ARM_Tiva_Projects_EECS_690_Sp
    1553                            .dwattr $C$DW$T$58, DW_AT_decl_line(0x86)
    1554                            .dwattr $C$DW$T$58, DW_AT_decl_column(0x10)
    1555                    $C$DW$T$141     .dwtag  DW_TAG_typedef, DW_AT_name("TimeOut_t")
    1556                            .dwattr $C$DW$T$141, DW_AT_type(*$C$DW$T$58)
    1557                            .dwattr $C$DW$T$141, DW_AT_language(DW_LANG_C)
    1558                            .dwattr $C$DW$T$141, DW_AT_decl_file("C:/Users/trilu/Downloads/TI_ARM_Tiva_Projects_EECS_690_S
    1559                            .dwattr $C$DW$T$141, DW_AT_decl_line(0x8a)
    1560                            .dwattr $C$DW$T$141, DW_AT_decl_column(0x03)
    1561                            .dwattr $C$DW$CU, DW_AT_language(DW_LANG_C)
    1562                    
    1563                    ;***************************************************************
    1564                    ;* DWARF CIE ENTRIES                                           *
    1565                    ;***************************************************************
    1566                    
    1567                    $C$DW$CIE       .dwcie 14
    1568                            .dwcfi  cfa_register, 13
TI ARM Assembler PC v5.2.5 Mon May 02 13:42:04 2016

Tools Copyright (c) 1996-2015 Texas Instruments Incorporated
Task_Report.asm                                                      PAGE   30

    1569                            .dwcfi  cfa_offset, 0
    1570                            .dwcfi  undefined, 0
    1571                            .dwcfi  undefined, 1
    1572                            .dwcfi  undefined, 2
    1573                            .dwcfi  undefined, 3
    1574                            .dwcfi  same_value, 4
    1575                            .dwcfi  same_value, 5
    1576                            .dwcfi  same_value, 6
    1577                            .dwcfi  same_value, 7
    1578                            .dwcfi  same_value, 8
    1579                            .dwcfi  same_value, 9
    1580                            .dwcfi  same_value, 10
    1581                            .dwcfi  same_value, 11
    1582                            .dwcfi  undefined, 12
    1583                            .dwcfi  undefined, 13
    1584                            .dwcfi  undefined, 14
    1585                            .dwcfi  undefined, 14
    1586                            .dwcfi  undefined, 7
    1587                            .dwcfi  undefined, 64
    1588                            .dwcfi  undefined, 65
    1589                            .dwcfi  undefined, 66
    1590                            .dwcfi  undefined, 67
    1591                            .dwcfi  undefined, 68
    1592                            .dwcfi  undefined, 69
    1593                            .dwcfi  undefined, 70
    1594                            .dwcfi  undefined, 71
    1595                            .dwcfi  undefined, 72
    1596                            .dwcfi  undefined, 73
    1597                            .dwcfi  undefined, 74
    1598                            .dwcfi  undefined, 75
    1599                            .dwcfi  undefined, 76
    1600                            .dwcfi  undefined, 77
    1601                            .dwcfi  undefined, 78
    1602                            .dwcfi  undefined, 79
    1603                            .dwcfi  same_value, 80
    1604                            .dwcfi  same_value, 81
    1605                            .dwcfi  same_value, 82
    1606                            .dwcfi  same_value, 83
    1607                            .dwcfi  same_value, 84
    1608                            .dwcfi  same_value, 85
    1609                            .dwcfi  same_value, 86
    1610                            .dwcfi  same_value, 87
    1611                            .dwcfi  same_value, 88
    1612                            .dwcfi  same_value, 89
    1613                            .dwcfi  same_value, 90
    1614                            .dwcfi  same_value, 91
    1615                            .dwcfi  same_value, 92
    1616                            .dwcfi  same_value, 93
    1617                            .dwcfi  same_value, 94
    1618                            .dwcfi  same_value, 95
    1619                            .dwendentry
    1620                            .dwendtag $C$DW$CU
    1621                    

--------------------------
Thumb2 Statistics
--------------------------
Number of Thumb2 ins converted to Thumb = 0 (0%)
Number of Thumb ins in input = 43 (76%)
Number of Thumb2 ins encoded as Thumb2 = 13 (100%)
Number of Thumb2 ins converted to 2 OPND Thumb = 0


No Assembly Errors, No Assembly Warnings
