TI ARM Assembler PC v5.2.5 Tue May 03 06:24:58 2016

Tools Copyright (c) 1996-2015 Texas Instruments Incorporated
Processor_Initialization_TM4C1294.asm                                PAGE    1

       1                    ;******************************************************************************
       2                    ;* TI ARM C/C++ Codegen                                             PC v5.2.5 *
       3                    ;* Date/Time created: Tue May 03 06:24:58 2016                                *
       4                    ;******************************************************************************
       5                            .compiler_opts --abi=eabi --arm_vmrs_si_workaround=off --code_state=16 --diag_wrap=off --disab
       6 00000000                   .thumb
       7                    
       8                    $C$DW$CU        .dwtag  DW_TAG_compile_unit
       9                            .dwattr $C$DW$CU, DW_AT_name("../Drivers/Processor_Initialization_TM4C1294.c")
      10                            .dwattr $C$DW$CU, DW_AT_producer("TI TI ARM C/C++ Codegen PC v5.2.5 Copyright (c) 1996-2015 Te
      11                            .dwattr $C$DW$CU, DW_AT_TI_version(0x01)
      12                            .dwattr $C$DW$CU, DW_AT_comp_dir("C:\Users\trilu\workspace_eecs\FreeRTOS823_3_TM4C1294_Base_Te
      13                    
      14                    $C$DW$1 .dwtag  DW_TAG_subprogram, DW_AT_name("GPIOPinConfigure")
      15                            .dwattr $C$DW$1, DW_AT_TI_symbol_name("GPIOPinConfigure")
      16                            .dwattr $C$DW$1, DW_AT_declaration
      17                            .dwattr $C$DW$1, DW_AT_external
      18                            .dwattr $C$DW$1, DW_AT_decl_file("C:/TI_CodeComposer/TivaWare/driverlib/gpio.h")
      19                            .dwattr $C$DW$1, DW_AT_decl_line(0x9f)
      20                            .dwattr $C$DW$1, DW_AT_decl_column(0x0d)
      21                    $C$DW$2 .dwtag  DW_TAG_formal_parameter
      22                            .dwattr $C$DW$2, DW_AT_type(*$C$DW$T$23)
      23                            .dwendtag $C$DW$1
      24                    
      25                    
      26                    $C$DW$3 .dwtag  DW_TAG_subprogram, DW_AT_name("GPIOPinTypeUART")
      27                            .dwattr $C$DW$3, DW_AT_TI_symbol_name("GPIOPinTypeUART")
      28                            .dwattr $C$DW$3, DW_AT_declaration
      29                            .dwattr $C$DW$3, DW_AT_external
      30                            .dwattr $C$DW$3, DW_AT_decl_file("C:/TI_CodeComposer/TivaWare/driverlib/gpio.h")
      31                            .dwattr $C$DW$3, DW_AT_decl_line(0xb5)
      32                            .dwattr $C$DW$3, DW_AT_decl_column(0x0d)
      33                    $C$DW$4 .dwtag  DW_TAG_formal_parameter
      34                            .dwattr $C$DW$4, DW_AT_type(*$C$DW$T$23)
      35                    $C$DW$5 .dwtag  DW_TAG_formal_parameter
      36                            .dwattr $C$DW$5, DW_AT_type(*$C$DW$T$19)
      37                            .dwendtag $C$DW$3
      38                    
      39                    
      40                    $C$DW$6 .dwtag  DW_TAG_subprogram, DW_AT_name("SysCtlPeripheralEnable")
      41                            .dwattr $C$DW$6, DW_AT_TI_symbol_name("SysCtlPeripheralEnable")
      42                            .dwattr $C$DW$6, DW_AT_declaration
      43                            .dwattr $C$DW$6, DW_AT_external
      44                            .dwattr $C$DW$6, DW_AT_decl_file("C:/TI_CodeComposer/TivaWare/driverlib/sysctl.h")
      45                            .dwattr $C$DW$6, DW_AT_decl_line(0x24e)
      46                            .dwattr $C$DW$6, DW_AT_decl_column(0x0d)
      47                    $C$DW$7 .dwtag  DW_TAG_formal_parameter
      48                            .dwattr $C$DW$7, DW_AT_type(*$C$DW$T$23)
      49                            .dwendtag $C$DW$6
      50                    
      51                    
      52                    $C$DW$8 .dwtag  DW_TAG_subprogram, DW_AT_name("SysCtlClockFreqSet")
      53                            .dwattr $C$DW$8, DW_AT_TI_symbol_name("SysCtlClockFreqSet")
      54                            .dwattr $C$DW$8, DW_AT_type(*$C$DW$T$23)
      55                            .dwattr $C$DW$8, DW_AT_declaration
TI ARM Assembler PC v5.2.5 Tue May 03 06:24:58 2016

Tools Copyright (c) 1996-2015 Texas Instruments Incorporated
Processor_Initialization_TM4C1294.asm                                PAGE    2

      56                            .dwattr $C$DW$8, DW_AT_external
      57                            .dwattr $C$DW$8, DW_AT_decl_file("C:/TI_CodeComposer/TivaWare/driverlib/sysctl.h")
      58                            .dwattr $C$DW$8, DW_AT_decl_line(0x27a)
      59                            .dwattr $C$DW$8, DW_AT_decl_column(0x11)
      60                    $C$DW$9 .dwtag  DW_TAG_formal_parameter
      61                            .dwattr $C$DW$9, DW_AT_type(*$C$DW$T$23)
      62                    $C$DW$10        .dwtag  DW_TAG_formal_parameter
      63                            .dwattr $C$DW$10, DW_AT_type(*$C$DW$T$23)
      64                            .dwendtag $C$DW$8
      65                    
      66                    
      67                    $C$DW$11        .dwtag  DW_TAG_subprogram, DW_AT_name("UARTConfigSetExpClk")
      68                            .dwattr $C$DW$11, DW_AT_TI_symbol_name("UARTConfigSetExpClk")
      69                            .dwattr $C$DW$11, DW_AT_declaration
      70                            .dwattr $C$DW$11, DW_AT_external
      71                            .dwattr $C$DW$11, DW_AT_decl_file("C:/TI_CodeComposer/TivaWare/driverlib/uart.h")
      72                            .dwattr $C$DW$11, DW_AT_decl_line(0xc8)
      73                            .dwattr $C$DW$11, DW_AT_decl_column(0x0d)
      74                    $C$DW$12        .dwtag  DW_TAG_formal_parameter
      75                            .dwattr $C$DW$12, DW_AT_type(*$C$DW$T$23)
      76                    $C$DW$13        .dwtag  DW_TAG_formal_parameter
      77                            .dwattr $C$DW$13, DW_AT_type(*$C$DW$T$23)
      78                    $C$DW$14        .dwtag  DW_TAG_formal_parameter
      79                            .dwattr $C$DW$14, DW_AT_type(*$C$DW$T$23)
      80                    $C$DW$15        .dwtag  DW_TAG_formal_parameter
      81                            .dwattr $C$DW$15, DW_AT_type(*$C$DW$T$23)
      82                            .dwendtag $C$DW$11
      83                    
      84                    
      85                    $C$DW$16        .dwtag  DW_TAG_subprogram, DW_AT_name("UARTEnable")
      86                            .dwattr $C$DW$16, DW_AT_TI_symbol_name("UARTEnable")
      87                            .dwattr $C$DW$16, DW_AT_declaration
      88                            .dwattr $C$DW$16, DW_AT_external
      89                            .dwattr $C$DW$16, DW_AT_decl_file("C:/TI_CodeComposer/TivaWare/driverlib/uart.h")
      90                            .dwattr $C$DW$16, DW_AT_decl_line(0xcc)
      91                            .dwattr $C$DW$16, DW_AT_decl_column(0x0d)
      92                    $C$DW$17        .dwtag  DW_TAG_formal_parameter
      93                            .dwattr $C$DW$17, DW_AT_type(*$C$DW$T$23)
      94                            .dwendtag $C$DW$16
      95                    
      96                    
      97                    $C$DW$18        .dwtag  DW_TAG_subprogram, DW_AT_name("UARTCharPut")
      98                            .dwattr $C$DW$18, DW_AT_TI_symbol_name("UARTCharPut")
      99                            .dwattr $C$DW$18, DW_AT_declaration
     100                            .dwattr $C$DW$18, DW_AT_external
     101                            .dwattr $C$DW$18, DW_AT_decl_file("C:/TI_CodeComposer/TivaWare/driverlib/uart.h")
     102                            .dwattr $C$DW$18, DW_AT_decl_line(0xd7)
     103                            .dwattr $C$DW$18, DW_AT_decl_column(0x0d)
     104                    $C$DW$19        .dwtag  DW_TAG_formal_parameter
     105                            .dwattr $C$DW$19, DW_AT_type(*$C$DW$T$23)
     106                    $C$DW$20        .dwtag  DW_TAG_formal_parameter
     107                            .dwattr $C$DW$20, DW_AT_type(*$C$DW$T$6)
     108                            .dwendtag $C$DW$18
     109                    
     110                    
TI ARM Assembler PC v5.2.5 Tue May 03 06:24:58 2016

Tools Copyright (c) 1996-2015 Texas Instruments Incorporated
Processor_Initialization_TM4C1294.asm                                PAGE    3

     111                    $C$DW$21        .dwtag  DW_TAG_subprogram, DW_AT_name("UARTClockSourceSet")
     112                            .dwattr $C$DW$21, DW_AT_TI_symbol_name("UARTClockSourceSet")
     113                            .dwattr $C$DW$21, DW_AT_declaration
     114                            .dwattr $C$DW$21, DW_AT_external
     115                            .dwattr $C$DW$21, DW_AT_decl_file("C:/TI_CodeComposer/TivaWare/driverlib/uart.h")
     116                            .dwattr $C$DW$21, DW_AT_decl_line(0xee)
     117                            .dwattr $C$DW$21, DW_AT_decl_column(0x0d)
     118                    $C$DW$22        .dwtag  DW_TAG_formal_parameter
     119                            .dwattr $C$DW$22, DW_AT_type(*$C$DW$T$23)
     120                    $C$DW$23        .dwtag  DW_TAG_formal_parameter
     121                            .dwattr $C$DW$23, DW_AT_type(*$C$DW$T$23)
     122                            .dwendtag $C$DW$21
     123                    
     124                    
     125                    $C$DW$24        .dwtag  DW_TAG_subprogram, DW_AT_name("UARTStdioConfig")
     126                            .dwattr $C$DW$24, DW_AT_TI_symbol_name("UARTStdioConfig")
     127                            .dwattr $C$DW$24, DW_AT_declaration
     128                            .dwattr $C$DW$24, DW_AT_external
     129                            .dwattr $C$DW$24, DW_AT_decl_file("C:/Users/trilu/workspace_eecs/FreeRTOS823_3_TM4C1294_Base_T
     130                            .dwattr $C$DW$24, DW_AT_decl_line(0x3d)
     131                            .dwattr $C$DW$24, DW_AT_decl_column(0x0d)
     132                    $C$DW$25        .dwtag  DW_TAG_formal_parameter
     133                            .dwattr $C$DW$25, DW_AT_type(*$C$DW$T$23)
     134                    $C$DW$26        .dwtag  DW_TAG_formal_parameter
     135                            .dwattr $C$DW$26, DW_AT_type(*$C$DW$T$23)
     136                    $C$DW$27        .dwtag  DW_TAG_formal_parameter
     137                            .dwattr $C$DW$27, DW_AT_type(*$C$DW$T$23)
     138                            .dwendtag $C$DW$24
     139                    
     140                    
     141                    $C$DW$28        .dwtag  DW_TAG_subprogram, DW_AT_name("xQueueGenericCreate")
     142                            .dwattr $C$DW$28, DW_AT_TI_symbol_name("xQueueGenericCreate")
     143                            .dwattr $C$DW$28, DW_AT_type(*$C$DW$T$62)
     144                            .dwattr $C$DW$28, DW_AT_declaration
     145                            .dwattr $C$DW$28, DW_AT_external
     146                            .dwattr $C$DW$28, DW_AT_decl_file("C:/Users/trilu/Downloads/TI_ARM_Tiva_Projects_EECS_690_Sp16
     147                            .dwattr $C$DW$28, DW_AT_decl_line(0x606)
     148                            .dwattr $C$DW$28, DW_AT_decl_column(0x0f)
     149                    $C$DW$29        .dwtag  DW_TAG_formal_parameter
     150                            .dwattr $C$DW$29, DW_AT_type(*$C$DW$T$63)
     151                    $C$DW$30        .dwtag  DW_TAG_formal_parameter
     152                            .dwattr $C$DW$30, DW_AT_type(*$C$DW$T$63)
     153                    $C$DW$31        .dwtag  DW_TAG_formal_parameter
     154                            .dwattr $C$DW$31, DW_AT_type(*$C$DW$T$64)
     155                            .dwendtag $C$DW$28
     156                    
     157                            .global ReportData_Queue
     158 00000000                   .data
     159                            .align  4
     160                            .elfsym ReportData_Queue,SYM_SIZE(4)
     161 00000000           ReportData_Queue:
     162 00000000 00000000          .bits   0,32                    ; ReportData_Queue @ 0
     163                    
     164                    $C$DW$32        .dwtag  DW_TAG_variable, DW_AT_name("ReportData_Queue")
     165                            .dwattr $C$DW$32, DW_AT_TI_symbol_name("ReportData_Queue")
TI ARM Assembler PC v5.2.5 Tue May 03 06:24:58 2016

Tools Copyright (c) 1996-2015 Texas Instruments Incorporated
Processor_Initialization_TM4C1294.asm                                PAGE    4

     166                            .dwattr $C$DW$32, DW_AT_location[DW_OP_addr ReportData_Queue]
     167                            .dwattr $C$DW$32, DW_AT_type(*$C$DW$T$62)
     168                            .dwattr $C$DW$32, DW_AT_external
     169                            .dwattr $C$DW$32, DW_AT_decl_file("../Drivers/Processor_Initialization_TM4C1294.c")
     170                            .dwattr $C$DW$32, DW_AT_decl_line(0x26)
     171                            .dwattr $C$DW$32, DW_AT_decl_column(0x0f)
     172                            .global Heater_Queue
     173 00000004                   .data
     174                            .align  4
     175                            .elfsym Heater_Queue,SYM_SIZE(4)
     176 00000004           Heater_Queue:
     177 00000004 00000000          .bits   0,32                    ; Heater_Queue @ 0
     178                    
     179                    $C$DW$33        .dwtag  DW_TAG_variable, DW_AT_name("Heater_Queue")
     180                            .dwattr $C$DW$33, DW_AT_TI_symbol_name("Heater_Queue")
     181                            .dwattr $C$DW$33, DW_AT_location[DW_OP_addr Heater_Queue]
     182                            .dwattr $C$DW$33, DW_AT_type(*$C$DW$T$62)
     183                            .dwattr $C$DW$33, DW_AT_external
     184                            .dwattr $C$DW$33, DW_AT_decl_file("../Drivers/Processor_Initialization_TM4C1294.c")
     185                            .dwattr $C$DW$33, DW_AT_decl_line(0x27)
     186                            .dwattr $C$DW$33, DW_AT_decl_column(0x0f)
     187                            .global Temp_Queue
     188 00000008                   .data
     189                            .align  4
     190                            .elfsym Temp_Queue,SYM_SIZE(4)
     191 00000008           Temp_Queue:
     192 00000008 00000000          .bits   0,32                    ; Temp_Queue @ 0
     193                    
     194                    $C$DW$34        .dwtag  DW_TAG_variable, DW_AT_name("Temp_Queue")
     195                            .dwattr $C$DW$34, DW_AT_TI_symbol_name("Temp_Queue")
     196                            .dwattr $C$DW$34, DW_AT_location[DW_OP_addr Temp_Queue]
     197                            .dwattr $C$DW$34, DW_AT_type(*$C$DW$T$62)
     198                            .dwattr $C$DW$34, DW_AT_external
     199                            .dwattr $C$DW$34, DW_AT_decl_file("../Drivers/Processor_Initialization_TM4C1294.c")
     200                            .dwattr $C$DW$34, DW_AT_decl_line(0x28)
     201                            .dwattr $C$DW$34, DW_AT_decl_column(0x0f)
     202                            .global Inp_Queue
     203 0000000c                   .data
     204                            .align  4
     205                            .elfsym Inp_Queue,SYM_SIZE(4)
     206 0000000c           Inp_Queue:
     207 0000000c 00000000          .bits   0,32                    ; Inp_Queue @ 0
     208                    
     209                    $C$DW$35        .dwtag  DW_TAG_variable, DW_AT_name("Inp_Queue")
     210                            .dwattr $C$DW$35, DW_AT_TI_symbol_name("Inp_Queue")
     211                            .dwattr $C$DW$35, DW_AT_location[DW_OP_addr Inp_Queue]
     212                            .dwattr $C$DW$35, DW_AT_type(*$C$DW$T$62)
     213                            .dwattr $C$DW$35, DW_AT_external
     214                            .dwattr $C$DW$35, DW_AT_decl_file("../Drivers/Processor_Initialization_TM4C1294.c")
     215                            .dwattr $C$DW$35, DW_AT_decl_line(0x29)
     216                            .dwattr $C$DW$35, DW_AT_decl_column(0x0f)
     217                            .global g_ulSystemClock
     218 00000010                   .data
     219                            .align  4
     220                            .elfsym g_ulSystemClock,SYM_SIZE(4)
TI ARM Assembler PC v5.2.5 Tue May 03 06:24:58 2016

Tools Copyright (c) 1996-2015 Texas Instruments Incorporated
Processor_Initialization_TM4C1294.asm                                PAGE    5

     221 00000010           g_ulSystemClock:
     222 00000010 00000000          .bits   0,32                    ; g_ulSystemClock @ 0
     223                    
     224                    $C$DW$36        .dwtag  DW_TAG_variable, DW_AT_name("g_ulSystemClock")
     225                            .dwattr $C$DW$36, DW_AT_TI_symbol_name("g_ulSystemClock")
     226                            .dwattr $C$DW$36, DW_AT_location[DW_OP_addr g_ulSystemClock]
     227                            .dwattr $C$DW$36, DW_AT_type(*$C$DW$T$23)
     228                            .dwattr $C$DW$36, DW_AT_external
     229                            .dwattr $C$DW$36, DW_AT_decl_file("../Drivers/Processor_Initialization_TM4C1294.c")
     230                            .dwattr $C$DW$36, DW_AT_decl_line(0x31)
     231                            .dwattr $C$DW$36, DW_AT_decl_column(0x13)
     232                            .global ProcessorInitFlag
     233 00000014                   .data
     234                            .align  4
     235                            .elfsym ProcessorInitFlag,SYM_SIZE(4)
     236 00000014           ProcessorInitFlag:
     237 00000014 00000000          .bits   0,32                    ; ProcessorInitFlag @ 0
     238                    
     239                    $C$DW$37        .dwtag  DW_TAG_variable, DW_AT_name("ProcessorInitFlag")
     240                            .dwattr $C$DW$37, DW_AT_TI_symbol_name("ProcessorInitFlag")
     241                            .dwattr $C$DW$37, DW_AT_location[DW_OP_addr ProcessorInitFlag]
     242                            .dwattr $C$DW$37, DW_AT_type(*$C$DW$T$23)
     243                            .dwattr $C$DW$37, DW_AT_external
     244                            .dwattr $C$DW$37, DW_AT_decl_file("../Drivers/Processor_Initialization_TM4C1294.c")
     245                            .dwattr $C$DW$37, DW_AT_decl_line(0x33)
     246                            .dwattr $C$DW$37, DW_AT_decl_column(0x0e)
     247                            .global UARTStdioInitFlag
     248 00000018                   .data
     249                            .align  4
     250                            .elfsym UARTStdioInitFlag,SYM_SIZE(4)
     251 00000018           UARTStdioInitFlag:
     252 00000018 00000000          .bits   0,32                    ; UARTStdioInitFlag @ 0
     253                    
     254                    $C$DW$38        .dwtag  DW_TAG_variable, DW_AT_name("UARTStdioInitFlag")
     255                            .dwattr $C$DW$38, DW_AT_TI_symbol_name("UARTStdioInitFlag")
     256                            .dwattr $C$DW$38, DW_AT_location[DW_OP_addr UARTStdioInitFlag]
     257                            .dwattr $C$DW$38, DW_AT_type(*$C$DW$T$23)
     258                            .dwattr $C$DW$38, DW_AT_external
     259                            .dwattr $C$DW$38, DW_AT_decl_file("../Drivers/Processor_Initialization_TM4C1294.c")
     260                            .dwattr $C$DW$38, DW_AT_decl_line(0x34)
     261                            .dwattr $C$DW$38, DW_AT_decl_column(0x0e)
     262                            .global FPUInitFlag
     263 0000001c                   .data
     264                            .align  4
     265                            .elfsym FPUInitFlag,SYM_SIZE(4)
     266 0000001c           FPUInitFlag:
     267 0000001c 00000000          .bits   0,32                    ; FPUInitFlag @ 0
     268                    
     269                    $C$DW$39        .dwtag  DW_TAG_variable, DW_AT_name("FPUInitFlag")
     270                            .dwattr $C$DW$39, DW_AT_TI_symbol_name("FPUInitFlag")
     271                            .dwattr $C$DW$39, DW_AT_location[DW_OP_addr FPUInitFlag]
     272                            .dwattr $C$DW$39, DW_AT_type(*$C$DW$T$23)
     273                            .dwattr $C$DW$39, DW_AT_external
     274                            .dwattr $C$DW$39, DW_AT_decl_file("../Drivers/Processor_Initialization_TM4C1294.c")
     275                            .dwattr $C$DW$39, DW_AT_decl_line(0x35)
TI ARM Assembler PC v5.2.5 Tue May 03 06:24:58 2016

Tools Copyright (c) 1996-2015 Texas Instruments Incorporated
Processor_Initialization_TM4C1294.asm                                PAGE    6

     276                            .dwattr $C$DW$39, DW_AT_decl_column(0x0e)
     277                    ;       C:\ti\ccsv6\tools\compiler\ti-cgt-arm_5.2.5\bin\armacpia.exe -@C:\\Users\\trilu\\AppData\\Loca
     278 00000000                   .sect   ".text"
     279                            .clink
     280                            .thumbfunc Processor_Initialization
     281 00000000                   .thumb
     282                            .global Processor_Initialization
     283                    
     284                    $C$DW$40        .dwtag  DW_TAG_subprogram, DW_AT_name("Processor_Initialization")
     285                            .dwattr $C$DW$40, DW_AT_low_pc(Processor_Initialization)
     286                            .dwattr $C$DW$40, DW_AT_high_pc(0x00)
     287                            .dwattr $C$DW$40, DW_AT_TI_symbol_name("Processor_Initialization")
     288                            .dwattr $C$DW$40, DW_AT_external
     289                            .dwattr $C$DW$40, DW_AT_type(*$C$DW$T$23)
     290                            .dwattr $C$DW$40, DW_AT_TI_begin_file("../Drivers/Processor_Initialization_TM4C1294.c")
     291                            .dwattr $C$DW$40, DW_AT_TI_begin_line(0x3b)
     292                            .dwattr $C$DW$40, DW_AT_TI_begin_column(0x11)
     293                            .dwattr $C$DW$40, DW_AT_decl_file("../Drivers/Processor_Initialization_TM4C1294.c")
     294                            .dwattr $C$DW$40, DW_AT_decl_line(0x3b)
     295                            .dwattr $C$DW$40, DW_AT_decl_column(0x11)
     296                            .dwattr $C$DW$40, DW_AT_TI_max_frame_size(0x08)
     297                            .dwpsn  file "../Drivers/Processor_Initialization_TM4C1294.c",line 59,column 44,is_stmt,addres
     298                    
     299                            .dwfde $C$DW$CIE, Processor_Initialization
     300                    
     301                    ;*****************************************************************************
     302                    ;* FUNCTION NAME: Processor_Initialization                                   *
     303                    ;*                                                                           *
     304                    ;*   Regs Modified     : A1,A2,A3,A4,V9,SP,LR,SR,D0,D0_hi,D1,D1_hi,D2,D2_hi, *
     305                    ;*                           D3,D3_hi,D4,D4_hi,D5,D5_hi,D6,D6_hi,D7,D7_hi,   *
     306                    ;*                           FPEXC,FPSCR                                     *
     307                    ;*   Regs Used         : A1,A2,A3,A4,V9,SP,LR,SR,D0,D0_hi,D1,D1_hi,D2,D2_hi, *
     308                    ;*                           D3,D3_hi,D4,D4_hi,D5,D5_hi,D6,D6_hi,D7,D7_hi,   *
     309                    ;*                           FPEXC,FPSCR                                     *
     310                    ;*   Local Frame Size  : 0 Args + 0 Auto + 4 Save = 4 byte                   *
     311                    ;*****************************************************************************
     312 00000000           Processor_Initialization:
     313                    ;* --------------------------------------------------------------------------*
     314                            .dwcfi  cfa_offset, 0
     315 00000000 B508              PUSH      {A4, LR}              ; [DPU_3_PIPE]  ; [ORIG 16-BIT INS]
     316                            .dwcfi  cfa_offset, 8
     317                            .dwcfi  save_reg_to_mem, 14, -4
     318                            .dwcfi  save_reg_to_mem, 3, -8
     319                            .dwpsn  file "../Drivers/Processor_Initialization_TM4C1294.c",line 61,column 2,is_stmt,isa 1
     320 00000002 4834              LDR       A1, $C$CON1           ; [DPU_3_PIPE] |61|  ; [ORIG 16-BIT INS]
     321 00000004 6800              LDR       A1, [A1, #0]          ; [DPU_3_PIPE] |61|  ; [ORIG 16-BIT INS]
     322 00000006 B958              CBNZ      A1, ||$C$L1||         ; []  ; [ORIG 16-BIT INS]
     323                            ; BRANCHCC OCCURS {||$C$L1||}    ; [] |61| 
     324                    ;* --------------------------------------------------------------------------*
     325                            .dwpsn  file "../Drivers/Processor_Initialization_TM4C1294.c",line 65,column 3,is_stmt,isa 1
     326 00000008 4834              LDR       A1, $C$CON3           ; [DPU_3_PIPE] |65|  ; [ORIG 16-BIT INS]
     327 0000000a 4935              LDR       A2, $C$CON4           ; [DPU_3_PIPE] |65|  ; [ORIG 16-BIT INS]
     328                    $C$DW$41        .dwtag  DW_TAG_TI_branch
     329                            .dwattr $C$DW$41, DW_AT_low_pc(0x00)
     330                            .dwattr $C$DW$41, DW_AT_name("SysCtlClockFreqSet")
TI ARM Assembler PC v5.2.5 Tue May 03 06:24:58 2016

Tools Copyright (c) 1996-2015 Texas Instruments Incorporated
Processor_Initialization_TM4C1294.asm                                PAGE    7

     331                            .dwattr $C$DW$41, DW_AT_TI_call
     332 0000000c FFFEF7FF!         BL        SysCtlClockFreqSet    ; [DPU_3_PIPE] |65|  ; [KEEP 32-BIT INS]
     333                            ; CALL OCCURS {SysCtlClockFreqSet }  ; [] |65| 
     334 00000010 4931              LDR       A2, $C$CON2           ; [DPU_3_PIPE] |65|  ; [ORIG 16-BIT INS]
     335 00000012 6008              STR       A1, [A2, #0]          ; [DPU_3_PIPE] |65|  ; [ORIG 16-BIT INS]
     336                            .dwpsn  file "../Drivers/Processor_Initialization_TM4C1294.c",line 84,column 3,is_stmt,isa 1
     337 00000014 492F              LDR       A2, $C$CON1           ; [DPU_3_PIPE] |84|  ; [ORIG 16-BIT INS]
     338 00000016 2001              MOVS      A1, #1                ; [DPU_3_PIPE] |84|  ; [ORIG 16-BIT INS]
     339 00000018 6008              STR       A1, [A2, #0]          ; [DPU_3_PIPE] |84|  ; [ORIG 16-BIT INS]
     340                            .dwpsn  file "../Drivers/Processor_Initialization_TM4C1294.c",line 85,column 3,is_stmt,isa 1
     341 0000001a 4932              LDR       A2, $C$CON5           ; [DPU_3_PIPE] |85|  ; [ORIG 16-BIT INS]
     342 0000001c 2000              MOVS      A1, #0                ; [DPU_3_PIPE] |85|  ; [ORIG 16-BIT INS]
     343 0000001e 6008              STR       A1, [A2, #0]          ; [DPU_3_PIPE] |85|  ; [ORIG 16-BIT INS]
     344                    ;* --------------------------------------------------------------------------*
     345 00000020           ||$C$L1||:    
     346                            .dwpsn  file "../Drivers/Processor_Initialization_TM4C1294.c",line 88,column 5,is_stmt,isa 1
     347 00000020 2001              MOVS      A1, #1                ; [DPU_3_PIPE] |88|  ; [ORIG 16-BIT INS]
     348                            .dwpsn  file "../Drivers/Processor_Initialization_TM4C1294.c",line 90,column 2,is_stmt,isa 1
     349                    $C$DW$42        .dwtag  DW_TAG_TI_branch
     350                            .dwattr $C$DW$42, DW_AT_low_pc(0x00)
     351                            .dwattr $C$DW$42, DW_AT_TI_return
     352 00000022 BD08              POP       {A4, PC}              ; [DPU_3_PIPE]  ; [ORIG 16-BIT INS]
     353                            .dwcfi  cfa_offset, 0
     354                            ; BRANCH OCCURS                  ; [] 
     355                            .dwattr $C$DW$40, DW_AT_TI_end_file("../Drivers/Processor_Initialization_TM4C1294.c")
     356                            .dwattr $C$DW$40, DW_AT_TI_end_line(0x5a)
     357                            .dwattr $C$DW$40, DW_AT_TI_end_column(0x02)
     358                            .dwendentry
     359                            .dwendtag $C$DW$40
     360                    
     361 00000024                   .sect   ".text"
     362                            .clink
     363                            .thumbfunc UART_Initialization
     364 00000024                   .thumb
     365                            .global UART_Initialization
     366                    
     367                    $C$DW$43        .dwtag  DW_TAG_subprogram, DW_AT_name("UART_Initialization")
     368                            .dwattr $C$DW$43, DW_AT_low_pc(UART_Initialization)
     369                            .dwattr $C$DW$43, DW_AT_high_pc(0x00)
     370                            .dwattr $C$DW$43, DW_AT_TI_symbol_name("UART_Initialization")
     371                            .dwattr $C$DW$43, DW_AT_external
     372                            .dwattr $C$DW$43, DW_AT_type(*$C$DW$T$23)
     373                            .dwattr $C$DW$43, DW_AT_TI_begin_file("../Drivers/Processor_Initialization_TM4C1294.c")
     374                            .dwattr $C$DW$43, DW_AT_TI_begin_line(0x63)
     375                            .dwattr $C$DW$43, DW_AT_TI_begin_column(0x11)
     376                            .dwattr $C$DW$43, DW_AT_decl_file("../Drivers/Processor_Initialization_TM4C1294.c")
     377                            .dwattr $C$DW$43, DW_AT_decl_line(0x63)
     378                            .dwattr $C$DW$43, DW_AT_decl_column(0x11)
     379                            .dwattr $C$DW$43, DW_AT_TI_max_frame_size(0x08)
     380                            .dwpsn  file "../Drivers/Processor_Initialization_TM4C1294.c",line 99,column 39,is_stmt,addres
     381                    
     382                            .dwfde $C$DW$CIE, UART_Initialization
     383                    
     384                    ;*****************************************************************************
     385                    ;* FUNCTION NAME: UART_Initialization                                        *
TI ARM Assembler PC v5.2.5 Tue May 03 06:24:58 2016

Tools Copyright (c) 1996-2015 Texas Instruments Incorporated
Processor_Initialization_TM4C1294.asm                                PAGE    8

     386                    ;*                                                                           *
     387                    ;*   Regs Modified     : A1,A2,A3,A4,V9,SP,LR,SR,D0,D0_hi,D1,D1_hi,D2,D2_hi, *
     388                    ;*                           D3,D3_hi,D4,D4_hi,D5,D5_hi,D6,D6_hi,D7,D7_hi,   *
     389                    ;*                           FPEXC,FPSCR                                     *
     390                    ;*   Regs Used         : A1,A2,A3,A4,V9,SP,LR,SR,D0,D0_hi,D1,D1_hi,D2,D2_hi, *
     391                    ;*                           D3,D3_hi,D4,D4_hi,D5,D5_hi,D6,D6_hi,D7,D7_hi,   *
     392                    ;*                           FPEXC,FPSCR                                     *
     393                    ;*   Local Frame Size  : 0 Args + 0 Auto + 4 Save = 4 byte                   *
     394                    ;*****************************************************************************
     395 00000024           UART_Initialization:
     396                    ;* --------------------------------------------------------------------------*
     397                            .dwcfi  cfa_offset, 0
     398 00000024 B508              PUSH      {A4, LR}              ; [DPU_3_PIPE]  ; [ORIG 16-BIT INS]
     399                            .dwcfi  cfa_offset, 8
     400                            .dwcfi  save_reg_to_mem, 14, -4
     401                            .dwcfi  save_reg_to_mem, 3, -8
     402                            .dwpsn  file "../Drivers/Processor_Initialization_TM4C1294.c",line 101,column 2,is_stmt,isa 1
     403 00000026 4830              LDR       A1, $C$CON6           ; [DPU_3_PIPE] |101|  ; [ORIG 16-BIT INS]
     404 00000028 6800              LDR       A1, [A1, #0]          ; [DPU_3_PIPE] |101|  ; [ORIG 16-BIT INS]
     405 0000002a BB90              CBNZ      A1, ||$C$L2||         ; []  ; [ORIG 16-BIT INS]
     406                            ; BRANCHCC OCCURS {||$C$L2||}    ; [] |101| 
     407                    ;* --------------------------------------------------------------------------*
     408                            .dwpsn  file "../Drivers/Processor_Initialization_TM4C1294.c",line 106,column 6,is_stmt,isa 1
     409 0000002c 482F              LDR       A1, $C$CON7           ; [DPU_3_PIPE] |106|  ; [ORIG 16-BIT INS]
     410                    $C$DW$44        .dwtag  DW_TAG_TI_branch
     411                            .dwattr $C$DW$44, DW_AT_low_pc(0x00)
     412                            .dwattr $C$DW$44, DW_AT_name("SysCtlPeripheralEnable")
     413                            .dwattr $C$DW$44, DW_AT_TI_call
     414 0000002e FFFEF7FF!         BL        SysCtlPeripheralEnable ; [DPU_3_PIPE] |106|  ; [KEEP 32-BIT INS]
     415                            ; CALL OCCURS {SysCtlPeripheralEnable }  ; [] |106| 
     416                            .dwpsn  file "../Drivers/Processor_Initialization_TM4C1294.c",line 107,column 6,is_stmt,isa 1
     417 00000032 482F              LDR       A1, $C$CON8           ; [DPU_3_PIPE] |107|  ; [ORIG 16-BIT INS]
     418                    $C$DW$45        .dwtag  DW_TAG_TI_branch
     419                            .dwattr $C$DW$45, DW_AT_low_pc(0x00)
     420                            .dwattr $C$DW$45, DW_AT_name("SysCtlPeripheralEnable")
     421                            .dwattr $C$DW$45, DW_AT_TI_call
     422 00000034 FFFEF7FF!         BL        SysCtlPeripheralEnable ; [DPU_3_PIPE] |107|  ; [KEEP 32-BIT INS]
     423                            ; CALL OCCURS {SysCtlPeripheralEnable }  ; [] |107| 
     424                            .dwpsn  file "../Drivers/Processor_Initialization_TM4C1294.c",line 109,column 6,is_stmt,isa 1
     425 00000038 2001              MOVS      A1, #1                ; [DPU_3_PIPE] |109|  ; [ORIG 16-BIT INS]
     426                    $C$DW$46        .dwtag  DW_TAG_TI_branch
     427                            .dwattr $C$DW$46, DW_AT_low_pc(0x00)
     428                            .dwattr $C$DW$46, DW_AT_name("GPIOPinConfigure")
     429                            .dwattr $C$DW$46, DW_AT_TI_call
     430 0000003a FFFEF7FF!         BL        GPIOPinConfigure      ; [DPU_3_PIPE] |109|  ; [KEEP 32-BIT INS]
     431                            ; CALL OCCURS {GPIOPinConfigure }  ; [] |109| 
     432                            .dwpsn  file "../Drivers/Processor_Initialization_TM4C1294.c",line 110,column 6,is_stmt,isa 1
     433 0000003e 4001F240          MOV       A1, #1025             ; [DPU_3_PIPE] |110|  ; [KEEP 32-BIT INS]
     434                    $C$DW$47        .dwtag  DW_TAG_TI_branch
     435                            .dwattr $C$DW$47, DW_AT_low_pc(0x00)
     436                            .dwattr $C$DW$47, DW_AT_name("GPIOPinConfigure")
     437                            .dwattr $C$DW$47, DW_AT_TI_call
     438 00000042 FFFEF7FF!         BL        GPIOPinConfigure      ; [DPU_3_PIPE] |110|  ; [KEEP 32-BIT INS]
     439                            ; CALL OCCURS {GPIOPinConfigure }  ; [] |110| 
     440                            .dwpsn  file "../Drivers/Processor_Initialization_TM4C1294.c",line 111,column 6,is_stmt,isa 1
TI ARM Assembler PC v5.2.5 Tue May 03 06:24:58 2016

Tools Copyright (c) 1996-2015 Texas Instruments Incorporated
Processor_Initialization_TM4C1294.asm                                PAGE    9

     441 00000046 2040F04F          MOV       A1, #1073758208       ; [DPU_3_PIPE] |111|  ; [KEEP 32-BIT INS]
     442 0000004a 2103              MOVS      A2, #3                ; [DPU_3_PIPE] |111|  ; [ORIG 16-BIT INS]
     443                    $C$DW$48        .dwtag  DW_TAG_TI_branch
     444                            .dwattr $C$DW$48, DW_AT_low_pc(0x00)
     445                            .dwattr $C$DW$48, DW_AT_name("GPIOPinTypeUART")
     446                            .dwattr $C$DW$48, DW_AT_TI_call
     447 0000004c FFFEF7FF!         BL        GPIOPinTypeUART       ; [DPU_3_PIPE] |111|  ; [KEEP 32-BIT INS]
     448                            ; CALL OCCURS {GPIOPinTypeUART }  ; [] |111| 
     449                            .dwpsn  file "../Drivers/Processor_Initialization_TM4C1294.c",line 116,column 6,is_stmt,isa 1
     450 00000050 4828              LDR       A1, $C$CON9           ; [DPU_3_PIPE] |116|  ; [ORIG 16-BIT INS]
     451 00000052 2100              MOVS      A2, #0                ; [DPU_3_PIPE] |116|  ; [ORIG 16-BIT INS]
     452                    $C$DW$49        .dwtag  DW_TAG_TI_branch
     453                            .dwattr $C$DW$49, DW_AT_low_pc(0x00)
     454                            .dwattr $C$DW$49, DW_AT_name("UARTClockSourceSet")
     455                            .dwattr $C$DW$49, DW_AT_TI_call
     456 00000054 FFFEF7FF!         BL        UARTClockSourceSet    ; [DPU_3_PIPE] |116|  ; [KEEP 32-BIT INS]
     457                            ; CALL OCCURS {UARTClockSourceSet }  ; [] |116| 
     458                            .dwpsn  file "../Drivers/Processor_Initialization_TM4C1294.c",line 117,column 6,is_stmt,isa 1
     459 00000058 491F              LDR       A2, $C$CON2           ; [DPU_3_PIPE] |117|  ; [ORIG 16-BIT INS]
     460 0000005a 4826              LDR       A1, $C$CON9           ; [DPU_3_PIPE] |117|  ; [ORIG 16-BIT INS]
     461 0000005c 6809              LDR       A2, [A2, #0]          ; [DPU_3_PIPE] |117|  ; [ORIG 16-BIT INS]
     462 0000005e 32E1F44F          MOV       A3, #115200           ; [DPU_3_PIPE] |117|  ; [KEEP 32-BIT INS]
     463 00000062 2360              MOVS      A4, #96               ; [DPU_3_PIPE] |117|  ; [ORIG 16-BIT INS]
     464                    $C$DW$50        .dwtag  DW_TAG_TI_branch
     465                            .dwattr $C$DW$50, DW_AT_low_pc(0x00)
     466                            .dwattr $C$DW$50, DW_AT_name("UARTConfigSetExpClk")
     467                            .dwattr $C$DW$50, DW_AT_TI_call
     468 00000064 FFFEF7FF!         BL        UARTConfigSetExpClk   ; [DPU_3_PIPE] |117|  ; [KEEP 32-BIT INS]
     469                            ; CALL OCCURS {UARTConfigSetExpClk }  ; [] |117| 
     470                            .dwpsn  file "../Drivers/Processor_Initialization_TM4C1294.c",line 125,column 6,is_stmt,isa 1
     471 00000068 4822              LDR       A1, $C$CON9           ; [DPU_3_PIPE] |125|  ; [ORIG 16-BIT INS]
     472                    $C$DW$51        .dwtag  DW_TAG_TI_branch
     473                            .dwattr $C$DW$51, DW_AT_low_pc(0x00)
     474                            .dwattr $C$DW$51, DW_AT_name("UARTEnable")
     475                            .dwattr $C$DW$51, DW_AT_TI_call
     476 0000006a FFFEF7FF!         BL        UARTEnable            ; [DPU_3_PIPE] |125|  ; [KEEP 32-BIT INS]
     477                            ; CALL OCCURS {UARTEnable }      ; [] |125| 
     478                            .dwpsn  file "../Drivers/Processor_Initialization_TM4C1294.c",line 127,column 6,is_stmt,isa 1
     479 0000006e 4821              LDR       A1, $C$CON9           ; [DPU_3_PIPE] |127|  ; [ORIG 16-BIT INS]
     480 00000070 213E              MOVS      A2, #62               ; [DPU_3_PIPE] |127|  ; [ORIG 16-BIT INS]
     481                    $C$DW$52        .dwtag  DW_TAG_TI_branch
     482                            .dwattr $C$DW$52, DW_AT_low_pc(0x00)
     483                            .dwattr $C$DW$52, DW_AT_name("UARTCharPut")
     484                            .dwattr $C$DW$52, DW_AT_TI_call
     485 00000072 FFFEF7FF!         BL        UARTCharPut           ; [DPU_3_PIPE] |127|  ; [KEEP 32-BIT INS]
     486                            ; CALL OCCURS {UARTCharPut }     ; [] |127| 
     487                            .dwpsn  file "../Drivers/Processor_Initialization_TM4C1294.c",line 128,column 6,is_stmt,isa 1
     488 00000076 481F              LDR       A1, $C$CON9           ; [DPU_3_PIPE] |128|  ; [ORIG 16-BIT INS]
     489 00000078 213E              MOVS      A2, #62               ; [DPU_3_PIPE] |128|  ; [ORIG 16-BIT INS]
     490                    $C$DW$53        .dwtag  DW_TAG_TI_branch
     491                            .dwattr $C$DW$53, DW_AT_low_pc(0x00)
     492                            .dwattr $C$DW$53, DW_AT_name("UARTCharPut")
     493                            .dwattr $C$DW$53, DW_AT_TI_call
     494 0000007a FFFEF7FF!         BL        UARTCharPut           ; [DPU_3_PIPE] |128|  ; [KEEP 32-BIT INS]
     495                            ; CALL OCCURS {UARTCharPut }     ; [] |128| 
TI ARM Assembler PC v5.2.5 Tue May 03 06:24:58 2016

Tools Copyright (c) 1996-2015 Texas Instruments Incorporated
Processor_Initialization_TM4C1294.asm                                PAGE   10

     496                            .dwpsn  file "../Drivers/Processor_Initialization_TM4C1294.c",line 133,column 6,is_stmt,isa 1
     497 0000007e 4816              LDR       A1, $C$CON2           ; [DPU_3_PIPE] |133|  ; [ORIG 16-BIT INS]
     498 00000080 6802              LDR       A3, [A1, #0]          ; [DPU_3_PIPE] |133|  ; [ORIG 16-BIT INS]
     499 00000082 31E1F44F          MOV       A2, #115200           ; [DPU_3_PIPE] |133|  ; [KEEP 32-BIT INS]
     500 00000086 2000              MOVS      A1, #0                ; [DPU_3_PIPE] |133|  ; [ORIG 16-BIT INS]
     501                    $C$DW$54        .dwtag  DW_TAG_TI_branch
     502                            .dwattr $C$DW$54, DW_AT_low_pc(0x00)
     503                            .dwattr $C$DW$54, DW_AT_name("UARTStdioConfig")
     504                            .dwattr $C$DW$54, DW_AT_TI_call
     505 00000088 FFFEF7FF!         BL        UARTStdioConfig       ; [DPU_3_PIPE] |133|  ; [KEEP 32-BIT INS]
     506                            ; CALL OCCURS {UARTStdioConfig }  ; [] |133| 
     507                    ;* --------------------------------------------------------------------------*
     508                            .dwpsn  file "../Drivers/Processor_Initialization_TM4C1294.c",line 135,column 3,is_stmt,isa 1
     509 0000008c 4916              LDR       A2, $C$CON6           ; [DPU_3_PIPE] |135|  ; [ORIG 16-BIT INS]
     510 0000008e 2001              MOVS      A1, #1                ; [DPU_3_PIPE] |135|  ; [ORIG 16-BIT INS]
     511 00000090 6008              STR       A1, [A2, #0]          ; [DPU_3_PIPE] |135|  ; [ORIG 16-BIT INS]
     512                    ;* --------------------------------------------------------------------------*
     513 00000092           ||$C$L2||:    
     514                            .dwpsn  file "../Drivers/Processor_Initialization_TM4C1294.c",line 138,column 5,is_stmt,isa 1
     515 00000092 2001              MOVS      A1, #1                ; [DPU_3_PIPE] |138|  ; [ORIG 16-BIT INS]
     516                            .dwpsn  file "../Drivers/Processor_Initialization_TM4C1294.c",line 140,column 2,is_stmt,isa 1
     517                    $C$DW$55        .dwtag  DW_TAG_TI_branch
     518                            .dwattr $C$DW$55, DW_AT_low_pc(0x00)
     519                            .dwattr $C$DW$55, DW_AT_TI_return
     520 00000094 BD08              POP       {A4, PC}              ; [DPU_3_PIPE]  ; [ORIG 16-BIT INS]
     521                            .dwcfi  cfa_offset, 0
     522                            ; BRANCH OCCURS                  ; [] 
     523                            .dwattr $C$DW$43, DW_AT_TI_end_file("../Drivers/Processor_Initialization_TM4C1294.c")
     524                            .dwattr $C$DW$43, DW_AT_TI_end_line(0x8c)
     525                            .dwattr $C$DW$43, DW_AT_TI_end_column(0x02)
     526                            .dwendentry
     527                            .dwendtag $C$DW$43
     528                    
     529 00000096                   .sect   ".text"
     530                            .clink
     531                            .thumbfunc Queue_Initialization
     532 00000096                   .thumb
     533                            .global Queue_Initialization
     534                    
     535                    $C$DW$56        .dwtag  DW_TAG_subprogram, DW_AT_name("Queue_Initialization")
     536                            .dwattr $C$DW$56, DW_AT_low_pc(Queue_Initialization)
     537                            .dwattr $C$DW$56, DW_AT_high_pc(0x00)
     538                            .dwattr $C$DW$56, DW_AT_TI_symbol_name("Queue_Initialization")
     539                            .dwattr $C$DW$56, DW_AT_external
     540                            .dwattr $C$DW$56, DW_AT_type(*$C$DW$T$23)
     541                            .dwattr $C$DW$56, DW_AT_TI_begin_file("../Drivers/Processor_Initialization_TM4C1294.c")
     542                            .dwattr $C$DW$56, DW_AT_TI_begin_line(0x93)
     543                            .dwattr $C$DW$56, DW_AT_TI_begin_column(0x11)
     544                            .dwattr $C$DW$56, DW_AT_decl_file("../Drivers/Processor_Initialization_TM4C1294.c")
     545                            .dwattr $C$DW$56, DW_AT_decl_line(0x93)
     546                            .dwattr $C$DW$56, DW_AT_decl_column(0x11)
     547                            .dwattr $C$DW$56, DW_AT_TI_max_frame_size(0x08)
     548                            .dwpsn  file "../Drivers/Processor_Initialization_TM4C1294.c",line 147,column 40,is_stmt,addre
     549                    
     550                            .dwfde $C$DW$CIE, Queue_Initialization
TI ARM Assembler PC v5.2.5 Tue May 03 06:24:58 2016

Tools Copyright (c) 1996-2015 Texas Instruments Incorporated
Processor_Initialization_TM4C1294.asm                                PAGE   11

     551                    
     552                    ;*****************************************************************************
     553                    ;* FUNCTION NAME: Queue_Initialization                                       *
     554                    ;*                                                                           *
     555                    ;*   Regs Modified     : A1,A2,A3,A4,V9,SP,LR,SR,D0,D0_hi,D1,D1_hi,D2,D2_hi, *
     556                    ;*                           D3,D3_hi,D4,D4_hi,D5,D5_hi,D6,D6_hi,D7,D7_hi,   *
     557                    ;*                           FPEXC,FPSCR                                     *
     558                    ;*   Regs Used         : A1,A2,A3,A4,V9,SP,LR,SR,D0,D0_hi,D1,D1_hi,D2,D2_hi, *
     559                    ;*                           D3,D3_hi,D4,D4_hi,D5,D5_hi,D6,D6_hi,D7,D7_hi,   *
     560                    ;*                           FPEXC,FPSCR                                     *
     561                    ;*   Local Frame Size  : 0 Args + 0 Auto + 4 Save = 4 byte                   *
     562                    ;*****************************************************************************
     563 00000096           Queue_Initialization:
     564                    ;* --------------------------------------------------------------------------*
     565                            .dwcfi  cfa_offset, 0
     566 00000096 B508              PUSH      {A4, LR}              ; [DPU_3_PIPE]  ; [ORIG 16-BIT INS]
     567                            .dwcfi  cfa_offset, 8
     568                            .dwcfi  save_reg_to_mem, 14, -4
     569                            .dwcfi  save_reg_to_mem, 3, -8
     570                            .dwpsn  file "../Drivers/Processor_Initialization_TM4C1294.c",line 151,column 2,is_stmt,isa 1
     571 00000098 200A              MOVS      A1, #10               ; [DPU_3_PIPE] |151|  ; [ORIG 16-BIT INS]
     572 0000009a 210C              MOVS      A2, #12               ; [DPU_3_PIPE] |151|  ; [ORIG 16-BIT INS]
     573 0000009c 2200              MOVS      A3, #0                ; [DPU_3_PIPE] |151|  ; [ORIG 16-BIT INS]
     574                    $C$DW$57        .dwtag  DW_TAG_TI_branch
     575                            .dwattr $C$DW$57, DW_AT_low_pc(0x00)
     576                            .dwattr $C$DW$57, DW_AT_name("xQueueGenericCreate")
     577                            .dwattr $C$DW$57, DW_AT_TI_call
     578 0000009e FFFEF7FF!         BL        xQueueGenericCreate   ; [DPU_3_PIPE] |151|  ; [KEEP 32-BIT INS]
     579                            ; CALL OCCURS {xQueueGenericCreate }  ; [] |151| 
     580 000000a2 4915              LDR       A2, $C$CON10          ; [DPU_3_PIPE] |151|  ; [ORIG 16-BIT INS]
     581 000000a4 6008              STR       A1, [A2, #0]          ; [DPU_3_PIPE] |151|  ; [ORIG 16-BIT INS]
     582                            .dwpsn  file "../Drivers/Processor_Initialization_TM4C1294.c",line 152,column 2,is_stmt,isa 1
     583 000000a6 2200              MOVS      A3, #0                ; [DPU_3_PIPE] |152|  ; [ORIG 16-BIT INS]
     584 000000a8 200A              MOVS      A1, #10               ; [DPU_3_PIPE] |152|  ; [ORIG 16-BIT INS]
     585 000000aa 210C              MOVS      A2, #12               ; [DPU_3_PIPE] |152|  ; [ORIG 16-BIT INS]
     586                    $C$DW$58        .dwtag  DW_TAG_TI_branch
     587                            .dwattr $C$DW$58, DW_AT_low_pc(0x00)
     588                            .dwattr $C$DW$58, DW_AT_name("xQueueGenericCreate")
     589                            .dwattr $C$DW$58, DW_AT_TI_call
     590 000000ac FFFEF7FF!         BL        xQueueGenericCreate   ; [DPU_3_PIPE] |152|  ; [KEEP 32-BIT INS]
     591                            ; CALL OCCURS {xQueueGenericCreate }  ; [] |152| 
     592 000000b0 4912              LDR       A2, $C$CON11          ; [DPU_3_PIPE] |152|  ; [ORIG 16-BIT INS]
     593 000000b2 6008              STR       A1, [A2, #0]          ; [DPU_3_PIPE] |152|  ; [ORIG 16-BIT INS]
     594                            .dwpsn  file "../Drivers/Processor_Initialization_TM4C1294.c",line 153,column 2,is_stmt,isa 1
     595 000000b4 2200              MOVS      A3, #0                ; [DPU_3_PIPE] |153|  ; [ORIG 16-BIT INS]
     596 000000b6 200A              MOVS      A1, #10               ; [DPU_3_PIPE] |153|  ; [ORIG 16-BIT INS]
     597 000000b8 2108              MOVS      A2, #8                ; [DPU_3_PIPE] |153|  ; [ORIG 16-BIT INS]
     598                    $C$DW$59        .dwtag  DW_TAG_TI_branch
     599                            .dwattr $C$DW$59, DW_AT_low_pc(0x00)
     600                            .dwattr $C$DW$59, DW_AT_name("xQueueGenericCreate")
     601                            .dwattr $C$DW$59, DW_AT_TI_call
     602 000000ba FFFEF7FF!         BL        xQueueGenericCreate   ; [DPU_3_PIPE] |153|  ; [KEEP 32-BIT INS]
     603                            ; CALL OCCURS {xQueueGenericCreate }  ; [] |153| 
     604 000000be 4910              LDR       A2, $C$CON12          ; [DPU_3_PIPE] |153|  ; [ORIG 16-BIT INS]
     605 000000c0 6008              STR       A1, [A2, #0]          ; [DPU_3_PIPE] |153|  ; [ORIG 16-BIT INS]
TI ARM Assembler PC v5.2.5 Tue May 03 06:24:58 2016

Tools Copyright (c) 1996-2015 Texas Instruments Incorporated
Processor_Initialization_TM4C1294.asm                                PAGE   12

     606                            .dwpsn  file "../Drivers/Processor_Initialization_TM4C1294.c",line 154,column 2,is_stmt,isa 1
     607 000000c2 2200              MOVS      A3, #0                ; [DPU_3_PIPE] |154|  ; [ORIG 16-BIT INS]
     608 000000c4 200A              MOVS      A1, #10               ; [DPU_3_PIPE] |154|  ; [ORIG 16-BIT INS]
     609 000000c6 2104              MOVS      A2, #4                ; [DPU_3_PIPE] |154|  ; [ORIG 16-BIT INS]
     610                    $C$DW$60        .dwtag  DW_TAG_TI_branch
     611                            .dwattr $C$DW$60, DW_AT_low_pc(0x00)
     612                            .dwattr $C$DW$60, DW_AT_name("xQueueGenericCreate")
     613                            .dwattr $C$DW$60, DW_AT_TI_call
     614 000000c8 FFFEF7FF!         BL        xQueueGenericCreate   ; [DPU_3_PIPE] |154|  ; [KEEP 32-BIT INS]
     615                            ; CALL OCCURS {xQueueGenericCreate }  ; [] |154| 
     616 000000cc 490D              LDR       A2, $C$CON13          ; [DPU_3_PIPE] |154|  ; [ORIG 16-BIT INS]
     617 000000ce 6008              STR       A1, [A2, #0]          ; [DPU_3_PIPE] |154|  ; [ORIG 16-BIT INS]
     618                            .dwpsn  file "../Drivers/Processor_Initialization_TM4C1294.c",line 155,column 2,is_stmt,isa 1
     619 000000d0 2001              MOVS      A1, #1                ; [DPU_3_PIPE] |155|  ; [ORIG 16-BIT INS]
     620                            .dwpsn  file "../Drivers/Processor_Initialization_TM4C1294.c",line 156,column 1,is_stmt,isa 1
     621                    $C$DW$61        .dwtag  DW_TAG_TI_branch
     622                            .dwattr $C$DW$61, DW_AT_low_pc(0x00)
     623                            .dwattr $C$DW$61, DW_AT_TI_return
     624 000000d2 BD08              POP       {A4, PC}              ; [DPU_3_PIPE]  ; [ORIG 16-BIT INS]
     625                            .dwcfi  cfa_offset, 0
     626                            ; BRANCH OCCURS                  ; [] 
     627                            .dwattr $C$DW$56, DW_AT_TI_end_file("../Drivers/Processor_Initialization_TM4C1294.c")
     628                            .dwattr $C$DW$56, DW_AT_TI_end_line(0x9c)
     629                            .dwattr $C$DW$56, DW_AT_TI_end_column(0x01)
     630                            .dwendentry
     631                            .dwendtag $C$DW$56
     632                    
     633                    ;******************************************************************************
     634                    ;* CONSTANT TABLE                                                             *
     635                    ;******************************************************************************
     636 000000d4                   .sect   ".text"
     637                            .align  4
     638 000000d4 00000000! ||$C$CON1||:    .bits   ProcessorInitFlag,32
     639                            .align  4
     640 000000d8 00000000! ||$C$CON2||:    .bits   g_ulSystemClock,32
     641                            .align  4
     642 000000dc F1000680  ||$C$CON3||:    .bits   -251656576,32
     643                            .align  4
     644 000000e0 07270E00  ||$C$CON4||:    .bits   120000000,32
     645                            .align  4
     646 000000e4 00000000! ||$C$CON5||:    .bits   FPUInitFlag,32
     647                            .align  4
     648 000000e8 00000000! ||$C$CON6||:    .bits   UARTStdioInitFlag,32
     649                            .align  4
     650 000000ec F0001800  ||$C$CON7||:    .bits   -268429312,32
     651                            .align  4
     652 000000f0 F0000800  ||$C$CON8||:    .bits   -268433408,32
     653                            .align  4
     654 000000f4 4000C000  ||$C$CON9||:    .bits   1073790976,32
     655                            .align  4
     656 000000f8 00000000! ||$C$CON10||:   .bits   ReportData_Queue,32
     657                            .align  4
     658 000000fc 00000000! ||$C$CON11||:   .bits   Heater_Queue,32
     659                            .align  4
     660 00000100 00000000! ||$C$CON12||:   .bits   Temp_Queue,32
TI ARM Assembler PC v5.2.5 Tue May 03 06:24:58 2016

Tools Copyright (c) 1996-2015 Texas Instruments Incorporated
Processor_Initialization_TM4C1294.asm                                PAGE   13

     661                            .align  4
     662 00000104 00000000! ||$C$CON13||:   .bits   Inp_Queue,32
     663                    ;*****************************************************************************
     664                    ;* UNDEFINED EXTERNAL REFERENCES                                             *
     665                    ;*****************************************************************************
     666                            .global GPIOPinConfigure
     667                            .global GPIOPinTypeUART
     668                            .global SysCtlPeripheralEnable
     669                            .global SysCtlClockFreqSet
     670                            .global UARTConfigSetExpClk
     671                            .global UARTEnable
     672                            .global UARTCharPut
     673                            .global UARTClockSourceSet
     674                            .global UARTStdioConfig
     675                            .global xQueueGenericCreate
     676                    
     677                    ;******************************************************************************
     678                    ;* BUILD ATTRIBUTES                                                           *
     679                    ;******************************************************************************
     680                            .battr "aeabi", Tag_File, 1, Tag_ABI_PCS_wchar_t(2)
     681                            .battr "aeabi", Tag_File, 1, Tag_ABI_FP_rounding(0)
     682                            .battr "aeabi", Tag_File, 1, Tag_ABI_FP_denormal(0)
     683                            .battr "aeabi", Tag_File, 1, Tag_ABI_FP_exceptions(0)
     684                            .battr "aeabi", Tag_File, 1, Tag_ABI_FP_number_model(1)
     685                            .battr "aeabi", Tag_File, 1, Tag_ABI_enum_size(1)
     686                            .battr "aeabi", Tag_File, 1, Tag_ABI_optimization_goals(5)
     687                            .battr "aeabi", Tag_File, 1, Tag_ABI_FP_optimization_goals(0)
     688                            .battr "TI", Tag_File, 1, Tag_Bitfield_layout(2)
     689                            .battr "TI", Tag_File, 1, Tag_FP_interface(1)
     690                    
     691                    ;******************************************************************************
     692                    ;* TYPE INFORMATION                                                           *
     693                    ;******************************************************************************
     694                    
     695                    $C$DW$T$50      .dwtag  DW_TAG_enumeration_type
     696                            .dwattr $C$DW$T$50, DW_AT_byte_size(0x01)
     697                    $C$DW$62        .dwtag  DW_TAG_enumerator, DW_AT_name("eRunning"), DW_AT_const_value(0x00)
     698                            .dwattr $C$DW$62, DW_AT_decl_file("C:/Users/trilu/Downloads/TI_ARM_Tiva_Projects_EECS_690_Sp16
     699                            .dwattr $C$DW$62, DW_AT_decl_line(0x72)
     700                            .dwattr $C$DW$62, DW_AT_decl_column(0x02)
     701                    $C$DW$63        .dwtag  DW_TAG_enumerator, DW_AT_name("eReady"), DW_AT_const_value(0x01)
     702                            .dwattr $C$DW$63, DW_AT_decl_file("C:/Users/trilu/Downloads/TI_ARM_Tiva_Projects_EECS_690_Sp16
     703                            .dwattr $C$DW$63, DW_AT_decl_line(0x73)
     704                            .dwattr $C$DW$63, DW_AT_decl_column(0x02)
     705                    $C$DW$64        .dwtag  DW_TAG_enumerator, DW_AT_name("eBlocked"), DW_AT_const_value(0x02)
     706                            .dwattr $C$DW$64, DW_AT_decl_file("C:/Users/trilu/Downloads/TI_ARM_Tiva_Projects_EECS_690_Sp16
     707                            .dwattr $C$DW$64, DW_AT_decl_line(0x74)
     708                            .dwattr $C$DW$64, DW_AT_decl_column(0x02)
     709                    $C$DW$65        .dwtag  DW_TAG_enumerator, DW_AT_name("eSuspended"), DW_AT_const_value(0x03)
     710                            .dwattr $C$DW$65, DW_AT_decl_file("C:/Users/trilu/Downloads/TI_ARM_Tiva_Projects_EECS_690_Sp16
     711                            .dwattr $C$DW$65, DW_AT_decl_line(0x75)
     712                            .dwattr $C$DW$65, DW_AT_decl_column(0x02)
     713                    $C$DW$66        .dwtag  DW_TAG_enumerator, DW_AT_name("eDeleted"), DW_AT_const_value(0x04)
     714                            .dwattr $C$DW$66, DW_AT_decl_file("C:/Users/trilu/Downloads/TI_ARM_Tiva_Projects_EECS_690_Sp16
     715                            .dwattr $C$DW$66, DW_AT_decl_line(0x76)
TI ARM Assembler PC v5.2.5 Tue May 03 06:24:58 2016

Tools Copyright (c) 1996-2015 Texas Instruments Incorporated
Processor_Initialization_TM4C1294.asm                                PAGE   14

     716                            .dwattr $C$DW$66, DW_AT_decl_column(0x02)
     717                            .dwendtag $C$DW$T$50
     718                    
     719                            .dwattr $C$DW$T$50, DW_AT_decl_file("C:/Users/trilu/Downloads/TI_ARM_Tiva_Projects_EECS_690_Sp
     720                            .dwattr $C$DW$T$50, DW_AT_decl_line(0x71)
     721                            .dwattr $C$DW$T$50, DW_AT_decl_column(0x01)
     722                    $C$DW$T$51      .dwtag  DW_TAG_typedef, DW_AT_name("eTaskState")
     723                            .dwattr $C$DW$T$51, DW_AT_type(*$C$DW$T$50)
     724                            .dwattr $C$DW$T$51, DW_AT_language(DW_LANG_C)
     725                            .dwattr $C$DW$T$51, DW_AT_decl_file("C:/Users/trilu/Downloads/TI_ARM_Tiva_Projects_EECS_690_Sp
     726                            .dwattr $C$DW$T$51, DW_AT_decl_line(0x77)
     727                            .dwattr $C$DW$T$51, DW_AT_decl_column(0x03)
     728                    
     729                    $C$DW$T$56      .dwtag  DW_TAG_enumeration_type
     730                            .dwattr $C$DW$T$56, DW_AT_byte_size(0x01)
     731                    $C$DW$67        .dwtag  DW_TAG_enumerator, DW_AT_name("eNoAction"), DW_AT_const_value(0x00)
     732                            .dwattr $C$DW$67, DW_AT_decl_file("C:/Users/trilu/Downloads/TI_ARM_Tiva_Projects_EECS_690_Sp16
     733                            .dwattr $C$DW$67, DW_AT_decl_line(0x7c)
     734                            .dwattr $C$DW$67, DW_AT_decl_column(0x02)
     735                    $C$DW$68        .dwtag  DW_TAG_enumerator, DW_AT_name("eSetBits"), DW_AT_const_value(0x01)
     736                            .dwattr $C$DW$68, DW_AT_decl_file("C:/Users/trilu/Downloads/TI_ARM_Tiva_Projects_EECS_690_Sp16
     737                            .dwattr $C$DW$68, DW_AT_decl_line(0x7d)
     738                            .dwattr $C$DW$68, DW_AT_decl_column(0x02)
     739                    $C$DW$69        .dwtag  DW_TAG_enumerator, DW_AT_name("eIncrement"), DW_AT_const_value(0x02)
     740                            .dwattr $C$DW$69, DW_AT_decl_file("C:/Users/trilu/Downloads/TI_ARM_Tiva_Projects_EECS_690_Sp16
     741                            .dwattr $C$DW$69, DW_AT_decl_line(0x7e)
     742                            .dwattr $C$DW$69, DW_AT_decl_column(0x02)
     743                    $C$DW$70        .dwtag  DW_TAG_enumerator, DW_AT_name("eSetValueWithOverwrite"), DW_AT_const_value(0x0
     744                            .dwattr $C$DW$70, DW_AT_decl_file("C:/Users/trilu/Downloads/TI_ARM_Tiva_Projects_EECS_690_Sp16
     745                            .dwattr $C$DW$70, DW_AT_decl_line(0x7f)
     746                            .dwattr $C$DW$70, DW_AT_decl_column(0x02)
     747                    $C$DW$71        .dwtag  DW_TAG_enumerator, DW_AT_name("eSetValueWithoutOverwrite"), DW_AT_const_value(
     748                            .dwattr $C$DW$71, DW_AT_decl_file("C:/Users/trilu/Downloads/TI_ARM_Tiva_Projects_EECS_690_Sp16
     749                            .dwattr $C$DW$71, DW_AT_decl_line(0x80)
     750                            .dwattr $C$DW$71, DW_AT_decl_column(0x02)
     751                            .dwendtag $C$DW$T$56
     752                    
     753                            .dwattr $C$DW$T$56, DW_AT_decl_file("C:/Users/trilu/Downloads/TI_ARM_Tiva_Projects_EECS_690_Sp
     754                            .dwattr $C$DW$T$56, DW_AT_decl_line(0x7b)
     755                            .dwattr $C$DW$T$56, DW_AT_decl_column(0x01)
     756                    $C$DW$T$57      .dwtag  DW_TAG_typedef, DW_AT_name("eNotifyAction")
     757                            .dwattr $C$DW$T$57, DW_AT_type(*$C$DW$T$56)
     758                            .dwattr $C$DW$T$57, DW_AT_language(DW_LANG_C)
     759                            .dwattr $C$DW$T$57, DW_AT_decl_file("C:/Users/trilu/Downloads/TI_ARM_Tiva_Projects_EECS_690_Sp
     760                            .dwattr $C$DW$T$57, DW_AT_decl_line(0x81)
     761                            .dwattr $C$DW$T$57, DW_AT_decl_column(0x03)
     762                    
     763                    $C$DW$T$58      .dwtag  DW_TAG_enumeration_type
     764                            .dwattr $C$DW$T$58, DW_AT_byte_size(0x01)
     765                    $C$DW$72        .dwtag  DW_TAG_enumerator, DW_AT_name("eAbortSleep"), DW_AT_const_value(0x00)
     766                            .dwattr $C$DW$72, DW_AT_decl_file("C:/Users/trilu/Downloads/TI_ARM_Tiva_Projects_EECS_690_Sp16
     767                            .dwattr $C$DW$72, DW_AT_decl_line(0xb5)
     768                            .dwattr $C$DW$72, DW_AT_decl_column(0x02)
     769                    $C$DW$73        .dwtag  DW_TAG_enumerator, DW_AT_name("eStandardSleep"), DW_AT_const_value(0x01)
     770                            .dwattr $C$DW$73, DW_AT_decl_file("C:/Users/trilu/Downloads/TI_ARM_Tiva_Projects_EECS_690_Sp16
TI ARM Assembler PC v5.2.5 Tue May 03 06:24:58 2016

Tools Copyright (c) 1996-2015 Texas Instruments Incorporated
Processor_Initialization_TM4C1294.asm                                PAGE   15

     771                            .dwattr $C$DW$73, DW_AT_decl_line(0xb6)
     772                            .dwattr $C$DW$73, DW_AT_decl_column(0x02)
     773                    $C$DW$74        .dwtag  DW_TAG_enumerator, DW_AT_name("eNoTasksWaitingTimeout"), DW_AT_const_value(0x0
     774                            .dwattr $C$DW$74, DW_AT_decl_file("C:/Users/trilu/Downloads/TI_ARM_Tiva_Projects_EECS_690_Sp16
     775                            .dwattr $C$DW$74, DW_AT_decl_line(0xb7)
     776                            .dwattr $C$DW$74, DW_AT_decl_column(0x02)
     777                            .dwendtag $C$DW$T$58
     778                    
     779                            .dwattr $C$DW$T$58, DW_AT_decl_file("C:/Users/trilu/Downloads/TI_ARM_Tiva_Projects_EECS_690_Sp
     780                            .dwattr $C$DW$T$58, DW_AT_decl_line(0xb4)
     781                            .dwattr $C$DW$T$58, DW_AT_decl_column(0x01)
     782                    $C$DW$T$59      .dwtag  DW_TAG_typedef, DW_AT_name("eSleepModeStatus")
     783                            .dwattr $C$DW$T$59, DW_AT_type(*$C$DW$T$58)
     784                            .dwattr $C$DW$T$59, DW_AT_language(DW_LANG_C)
     785                            .dwattr $C$DW$T$59, DW_AT_decl_file("C:/Users/trilu/Downloads/TI_ARM_Tiva_Projects_EECS_690_Sp
     786                            .dwattr $C$DW$T$59, DW_AT_decl_line(0xb8)
     787                            .dwattr $C$DW$T$59, DW_AT_decl_column(0x03)
     788                    
     789                    $C$DW$T$22      .dwtag  DW_TAG_structure_type
     790                            .dwattr $C$DW$T$22, DW_AT_name("HeapRegion")
     791                            .dwattr $C$DW$T$22, DW_AT_byte_size(0x08)
     792                    $C$DW$75        .dwtag  DW_TAG_member
     793                            .dwattr $C$DW$75, DW_AT_type(*$C$DW$T$20)
     794                            .dwattr $C$DW$75, DW_AT_name("pucStartAddress")
     795                            .dwattr $C$DW$75, DW_AT_TI_symbol_name("pucStartAddress")
     796                            .dwattr $C$DW$75, DW_AT_data_member_location[DW_OP_plus_uconst 0x0]
     797                            .dwattr $C$DW$75, DW_AT_accessibility(DW_ACCESS_public)
     798                            .dwattr $C$DW$75, DW_AT_decl_file("C:\Users\trilu\Downloads\TI_ARM_Tiva_Projects_EECS_690_Sp16
     799                            .dwattr $C$DW$75, DW_AT_decl_line(0x96)
     800                            .dwattr $C$DW$75, DW_AT_decl_column(0x0b)
     801                    $C$DW$76        .dwtag  DW_TAG_member
     802                            .dwattr $C$DW$76, DW_AT_type(*$C$DW$T$21)
     803                            .dwattr $C$DW$76, DW_AT_name("xSizeInBytes")
     804                            .dwattr $C$DW$76, DW_AT_TI_symbol_name("xSizeInBytes")
     805                            .dwattr $C$DW$76, DW_AT_data_member_location[DW_OP_plus_uconst 0x4]
     806                            .dwattr $C$DW$76, DW_AT_accessibility(DW_ACCESS_public)
     807                            .dwattr $C$DW$76, DW_AT_decl_file("C:\Users\trilu\Downloads\TI_ARM_Tiva_Projects_EECS_690_Sp16
     808                            .dwattr $C$DW$76, DW_AT_decl_line(0x97)
     809                            .dwattr $C$DW$76, DW_AT_decl_column(0x09)
     810                            .dwendtag $C$DW$T$22
     811                    
     812                            .dwattr $C$DW$T$22, DW_AT_decl_file("C:\Users\trilu\Downloads\TI_ARM_Tiva_Projects_EECS_690_Sp
     813                            .dwattr $C$DW$T$22, DW_AT_decl_line(0x94)
     814                            .dwattr $C$DW$T$22, DW_AT_decl_column(0x10)
     815                    $C$DW$T$60      .dwtag  DW_TAG_typedef, DW_AT_name("HeapRegion_t")
     816                            .dwattr $C$DW$T$60, DW_AT_type(*$C$DW$T$22)
     817                            .dwattr $C$DW$T$60, DW_AT_language(DW_LANG_C)
     818                            .dwattr $C$DW$T$60, DW_AT_decl_file("C:\Users\trilu\Downloads\TI_ARM_Tiva_Projects_EECS_690_Sp
     819                            .dwattr $C$DW$T$60, DW_AT_decl_line(0x98)
     820                            .dwattr $C$DW$T$60, DW_AT_decl_column(0x03)
     821                    
     822                    $C$DW$T$24      .dwtag  DW_TAG_structure_type
     823                            .dwattr $C$DW$T$24, DW_AT_name("ReportData_Item")
     824                            .dwattr $C$DW$T$24, DW_AT_byte_size(0x0c)
     825                    $C$DW$77        .dwtag  DW_TAG_member
TI ARM Assembler PC v5.2.5 Tue May 03 06:24:58 2016

Tools Copyright (c) 1996-2015 Texas Instruments Incorporated
Processor_Initialization_TM4C1294.asm                                PAGE   16

     826                            .dwattr $C$DW$77, DW_AT_type(*$C$DW$T$23)
     827                            .dwattr $C$DW$77, DW_AT_name("timestamp")
     828                            .dwattr $C$DW$77, DW_AT_TI_symbol_name("timestamp")
     829                            .dwattr $C$DW$77, DW_AT_data_member_location[DW_OP_plus_uconst 0x0]
     830                            .dwattr $C$DW$77, DW_AT_accessibility(DW_ACCESS_public)
     831                            .dwattr $C$DW$77, DW_AT_decl_file("C:/Users/trilu/workspace_eecs/FreeRTOS823_3_TM4C1294_Base_T
     832                            .dwattr $C$DW$77, DW_AT_decl_line(0x1e)
     833                            .dwattr $C$DW$77, DW_AT_decl_column(0x0b)
     834                    $C$DW$78        .dwtag  DW_TAG_member
     835                            .dwattr $C$DW$78, DW_AT_type(*$C$DW$T$23)
     836                            .dwattr $C$DW$78, DW_AT_name("ID")
     837                            .dwattr $C$DW$78, DW_AT_TI_symbol_name("ID")
     838                            .dwattr $C$DW$78, DW_AT_data_member_location[DW_OP_plus_uconst 0x4]
     839                            .dwattr $C$DW$78, DW_AT_accessibility(DW_ACCESS_public)
     840                            .dwattr $C$DW$78, DW_AT_decl_file("C:/Users/trilu/workspace_eecs/FreeRTOS823_3_TM4C1294_Base_T
     841                            .dwattr $C$DW$78, DW_AT_decl_line(0x1f)
     842                            .dwattr $C$DW$78, DW_AT_decl_column(0x0b)
     843                    $C$DW$79        .dwtag  DW_TAG_member
     844                            .dwattr $C$DW$79, DW_AT_type(*$C$DW$T$23)
     845                            .dwattr $C$DW$79, DW_AT_name("value")
     846                            .dwattr $C$DW$79, DW_AT_TI_symbol_name("value")
     847                            .dwattr $C$DW$79, DW_AT_data_member_location[DW_OP_plus_uconst 0x8]
     848                            .dwattr $C$DW$79, DW_AT_accessibility(DW_ACCESS_public)
     849                            .dwattr $C$DW$79, DW_AT_decl_file("C:/Users/trilu/workspace_eecs/FreeRTOS823_3_TM4C1294_Base_T
     850                            .dwattr $C$DW$79, DW_AT_decl_line(0x20)
     851                            .dwattr $C$DW$79, DW_AT_decl_column(0x0b)
     852                            .dwendtag $C$DW$T$24
     853                    
     854                            .dwattr $C$DW$T$24, DW_AT_decl_file("C:/Users/trilu/workspace_eecs/FreeRTOS823_3_TM4C1294_Base
     855                            .dwattr $C$DW$T$24, DW_AT_decl_line(0x1c)
     856                            .dwattr $C$DW$T$24, DW_AT_decl_column(0x10)
     857                    $C$DW$T$61      .dwtag  DW_TAG_typedef, DW_AT_name("ReportData_Item")
     858                            .dwattr $C$DW$T$61, DW_AT_type(*$C$DW$T$24)
     859                            .dwattr $C$DW$T$61, DW_AT_language(DW_LANG_C)
     860                            .dwattr $C$DW$T$61, DW_AT_decl_file("C:/Users/trilu/workspace_eecs/FreeRTOS823_3_TM4C1294_Base
     861                            .dwattr $C$DW$T$61, DW_AT_decl_line(0x21)
     862                            .dwattr $C$DW$T$61, DW_AT_decl_column(0x03)
     863                    $C$DW$T$2       .dwtag  DW_TAG_unspecified_type
     864                            .dwattr $C$DW$T$2, DW_AT_name("void")
     865                    $C$DW$T$3       .dwtag  DW_TAG_pointer_type
     866                            .dwattr $C$DW$T$3, DW_AT_type(*$C$DW$T$2)
     867                            .dwattr $C$DW$T$3, DW_AT_address_class(0x20)
     868                    $C$DW$T$62      .dwtag  DW_TAG_typedef, DW_AT_name("QueueHandle_t")
     869                            .dwattr $C$DW$T$62, DW_AT_type(*$C$DW$T$3)
     870                            .dwattr $C$DW$T$62, DW_AT_language(DW_LANG_C)
     871                            .dwattr $C$DW$T$62, DW_AT_decl_file("C:/Users/trilu/Downloads/TI_ARM_Tiva_Projects_EECS_690_Sp
     872                            .dwattr $C$DW$T$62, DW_AT_decl_line(0x58)
     873                            .dwattr $C$DW$T$62, DW_AT_decl_column(0x10)
     874                    $C$DW$T$67      .dwtag  DW_TAG_typedef, DW_AT_name("QueueSetHandle_t")
     875                            .dwattr $C$DW$T$67, DW_AT_type(*$C$DW$T$3)
     876                            .dwattr $C$DW$T$67, DW_AT_language(DW_LANG_C)
     877                            .dwattr $C$DW$T$67, DW_AT_decl_file("C:/Users/trilu/Downloads/TI_ARM_Tiva_Projects_EECS_690_Sp
     878                            .dwattr $C$DW$T$67, DW_AT_decl_line(0x5f)
     879                            .dwattr $C$DW$T$67, DW_AT_decl_column(0x10)
     880                    $C$DW$T$68      .dwtag  DW_TAG_typedef, DW_AT_name("QueueSetMemberHandle_t")
TI ARM Assembler PC v5.2.5 Tue May 03 06:24:58 2016

Tools Copyright (c) 1996-2015 Texas Instruments Incorporated
Processor_Initialization_TM4C1294.asm                                PAGE   17

     881                            .dwattr $C$DW$T$68, DW_AT_type(*$C$DW$T$3)
     882                            .dwattr $C$DW$T$68, DW_AT_language(DW_LANG_C)
     883                            .dwattr $C$DW$T$68, DW_AT_decl_file("C:/Users/trilu/Downloads/TI_ARM_Tiva_Projects_EECS_690_Sp
     884                            .dwattr $C$DW$T$68, DW_AT_decl_line(0x66)
     885                            .dwattr $C$DW$T$68, DW_AT_decl_column(0x10)
     886                    $C$DW$T$49      .dwtag  DW_TAG_typedef, DW_AT_name("TaskHandle_t")
     887                            .dwattr $C$DW$T$49, DW_AT_type(*$C$DW$T$3)
     888                            .dwattr $C$DW$T$49, DW_AT_language(DW_LANG_C)
     889                            .dwattr $C$DW$T$49, DW_AT_decl_file("C:/Users/trilu/Downloads/TI_ARM_Tiva_Projects_EECS_690_Sp
     890                            .dwattr $C$DW$T$49, DW_AT_decl_line(0x67)
     891                            .dwattr $C$DW$T$49, DW_AT_decl_column(0x10)
     892                    
     893                    $C$DW$T$36      .dwtag  DW_TAG_subroutine_type
     894                            .dwattr $C$DW$T$36, DW_AT_language(DW_LANG_C)
     895                    $C$DW$80        .dwtag  DW_TAG_formal_parameter
     896                            .dwattr $C$DW$80, DW_AT_type(*$C$DW$T$3)
     897                            .dwendtag $C$DW$T$36
     898                    
     899                    $C$DW$T$37      .dwtag  DW_TAG_pointer_type
     900                            .dwattr $C$DW$T$37, DW_AT_type(*$C$DW$T$36)
     901                            .dwattr $C$DW$T$37, DW_AT_address_class(0x20)
     902                    $C$DW$T$38      .dwtag  DW_TAG_typedef, DW_AT_name("TaskFunction_t")
     903                            .dwattr $C$DW$T$38, DW_AT_type(*$C$DW$T$37)
     904                            .dwattr $C$DW$T$38, DW_AT_language(DW_LANG_C)
     905                            .dwattr $C$DW$T$38, DW_AT_decl_file("C:\Users\trilu\Downloads\TI_ARM_Tiva_Projects_EECS_690_Sp
     906                            .dwattr $C$DW$T$38, DW_AT_decl_line(0x4d)
     907                            .dwattr $C$DW$T$38, DW_AT_decl_column(0x10)
     908                    $C$DW$T$4       .dwtag  DW_TAG_base_type
     909                            .dwattr $C$DW$T$4, DW_AT_encoding(DW_ATE_boolean)
     910                            .dwattr $C$DW$T$4, DW_AT_name("bool")
     911                            .dwattr $C$DW$T$4, DW_AT_byte_size(0x01)
     912                    $C$DW$T$5       .dwtag  DW_TAG_base_type
     913                            .dwattr $C$DW$T$5, DW_AT_encoding(DW_ATE_signed_char)
     914                            .dwattr $C$DW$T$5, DW_AT_name("signed char")
     915                            .dwattr $C$DW$T$5, DW_AT_byte_size(0x01)
     916                    $C$DW$T$81      .dwtag  DW_TAG_typedef, DW_AT_name("int8_t")
     917                            .dwattr $C$DW$T$81, DW_AT_type(*$C$DW$T$5)
     918                            .dwattr $C$DW$T$81, DW_AT_language(DW_LANG_C)
     919                            .dwattr $C$DW$T$81, DW_AT_decl_file("C:/ti/ccsv6/tools/compiler/ti-cgt-arm_5.2.5/include/stdin
     920                            .dwattr $C$DW$T$81, DW_AT_decl_line(0x2a)
     921                            .dwattr $C$DW$T$81, DW_AT_decl_column(0x1d)
     922                    $C$DW$T$82      .dwtag  DW_TAG_typedef, DW_AT_name("int_least8_t")
     923                            .dwattr $C$DW$T$82, DW_AT_type(*$C$DW$T$81)
     924                            .dwattr $C$DW$T$82, DW_AT_language(DW_LANG_C)
     925                            .dwattr $C$DW$T$82, DW_AT_decl_file("C:/ti/ccsv6/tools/compiler/ti-cgt-arm_5.2.5/include/stdin
     926                            .dwattr $C$DW$T$82, DW_AT_decl_line(0x37)
     927                            .dwattr $C$DW$T$82, DW_AT_decl_column(0x17)
     928                    $C$DW$T$6       .dwtag  DW_TAG_base_type
     929                            .dwattr $C$DW$T$6, DW_AT_encoding(DW_ATE_unsigned_char)
     930                            .dwattr $C$DW$T$6, DW_AT_name("unsigned char")
     931                            .dwattr $C$DW$T$6, DW_AT_byte_size(0x01)
     932                    $C$DW$T$19      .dwtag  DW_TAG_typedef, DW_AT_name("uint8_t")
     933                            .dwattr $C$DW$T$19, DW_AT_type(*$C$DW$T$6)
     934                            .dwattr $C$DW$T$19, DW_AT_language(DW_LANG_C)
     935                            .dwattr $C$DW$T$19, DW_AT_decl_file("C:/ti/ccsv6/tools/compiler/ti-cgt-arm_5.2.5/include/stdin
TI ARM Assembler PC v5.2.5 Tue May 03 06:24:58 2016

Tools Copyright (c) 1996-2015 Texas Instruments Incorporated
Processor_Initialization_TM4C1294.asm                                PAGE   18

     936                            .dwattr $C$DW$T$19, DW_AT_decl_line(0x2b)
     937                            .dwattr $C$DW$T$19, DW_AT_decl_column(0x1c)
     938                    $C$DW$T$20      .dwtag  DW_TAG_pointer_type
     939                            .dwattr $C$DW$T$20, DW_AT_type(*$C$DW$T$19)
     940                            .dwattr $C$DW$T$20, DW_AT_address_class(0x20)
     941                    $C$DW$T$83      .dwtag  DW_TAG_typedef, DW_AT_name("portCHAR")
     942                            .dwattr $C$DW$T$83, DW_AT_type(*$C$DW$T$19)
     943                            .dwattr $C$DW$T$83, DW_AT_language(DW_LANG_C)
     944                            .dwattr $C$DW$T$83, DW_AT_decl_file("C:/Users/trilu/Downloads/TI_ARM_Tiva_Projects_EECS_690_Sp
     945                            .dwattr $C$DW$T$83, DW_AT_decl_line(0x60)
     946                            .dwattr $C$DW$T$83, DW_AT_decl_column(0x12)
     947                    $C$DW$T$64      .dwtag  DW_TAG_const_type
     948                            .dwattr $C$DW$T$64, DW_AT_type(*$C$DW$T$19)
     949                    $C$DW$T$84      .dwtag  DW_TAG_typedef, DW_AT_name("uint_least8_t")
     950                            .dwattr $C$DW$T$84, DW_AT_type(*$C$DW$T$19)
     951                            .dwattr $C$DW$T$84, DW_AT_language(DW_LANG_C)
     952                            .dwattr $C$DW$T$84, DW_AT_decl_file("C:/ti/ccsv6/tools/compiler/ti-cgt-arm_5.2.5/include/stdin
     953                            .dwattr $C$DW$T$84, DW_AT_decl_line(0x38)
     954                            .dwattr $C$DW$T$84, DW_AT_decl_column(0x16)
     955                    $C$DW$T$7       .dwtag  DW_TAG_base_type
     956                            .dwattr $C$DW$T$7, DW_AT_encoding(DW_ATE_signed_char)
     957                            .dwattr $C$DW$T$7, DW_AT_name("wchar_t")
     958                            .dwattr $C$DW$T$7, DW_AT_byte_size(0x02)
     959                    $C$DW$T$8       .dwtag  DW_TAG_base_type
     960                            .dwattr $C$DW$T$8, DW_AT_encoding(DW_ATE_signed)
     961                            .dwattr $C$DW$T$8, DW_AT_name("short")
     962                            .dwattr $C$DW$T$8, DW_AT_byte_size(0x02)
     963                    $C$DW$T$85      .dwtag  DW_TAG_typedef, DW_AT_name("int16_t")
     964                            .dwattr $C$DW$T$85, DW_AT_type(*$C$DW$T$8)
     965                            .dwattr $C$DW$T$85, DW_AT_language(DW_LANG_C)
     966                            .dwattr $C$DW$T$85, DW_AT_decl_file("C:/ti/ccsv6/tools/compiler/ti-cgt-arm_5.2.5/include/stdin
     967                            .dwattr $C$DW$T$85, DW_AT_decl_line(0x2c)
     968                            .dwattr $C$DW$T$85, DW_AT_decl_column(0x1d)
     969                    $C$DW$T$86      .dwtag  DW_TAG_typedef, DW_AT_name("int_least16_t")
     970                            .dwattr $C$DW$T$86, DW_AT_type(*$C$DW$T$85)
     971                            .dwattr $C$DW$T$86, DW_AT_language(DW_LANG_C)
     972                            .dwattr $C$DW$T$86, DW_AT_decl_file("C:/ti/ccsv6/tools/compiler/ti-cgt-arm_5.2.5/include/stdin
     973                            .dwattr $C$DW$T$86, DW_AT_decl_line(0x3a)
     974                            .dwattr $C$DW$T$86, DW_AT_decl_column(0x17)
     975                    $C$DW$T$87      .dwtag  DW_TAG_typedef, DW_AT_name("portSHORT")
     976                            .dwattr $C$DW$T$87, DW_AT_type(*$C$DW$T$85)
     977                            .dwattr $C$DW$T$87, DW_AT_language(DW_LANG_C)
     978                            .dwattr $C$DW$T$87, DW_AT_decl_file("C:/Users/trilu/Downloads/TI_ARM_Tiva_Projects_EECS_690_Sp
     979                            .dwattr $C$DW$T$87, DW_AT_decl_line(0x64)
     980                            .dwattr $C$DW$T$87, DW_AT_decl_column(0x12)
     981                    $C$DW$T$9       .dwtag  DW_TAG_base_type
     982                            .dwattr $C$DW$T$9, DW_AT_encoding(DW_ATE_unsigned)
     983                            .dwattr $C$DW$T$9, DW_AT_name("unsigned short")
     984                            .dwattr $C$DW$T$9, DW_AT_byte_size(0x02)
     985                    $C$DW$T$88      .dwtag  DW_TAG_typedef, DW_AT_name("_Wchart")
     986                            .dwattr $C$DW$T$88, DW_AT_type(*$C$DW$T$9)
     987                            .dwattr $C$DW$T$88, DW_AT_language(DW_LANG_C)
     988                            .dwattr $C$DW$T$88, DW_AT_decl_file("C:/ti/ccsv6/tools/compiler/ti-cgt-arm_5.2.5/include/yvals
     989                            .dwattr $C$DW$T$88, DW_AT_decl_line(0x1e5)
     990                            .dwattr $C$DW$T$88, DW_AT_decl_column(0x21)
TI ARM Assembler PC v5.2.5 Tue May 03 06:24:58 2016

Tools Copyright (c) 1996-2015 Texas Instruments Incorporated
Processor_Initialization_TM4C1294.asm                                PAGE   19

     991                    $C$DW$T$89      .dwtag  DW_TAG_typedef, DW_AT_name("_Wintt")
     992                            .dwattr $C$DW$T$89, DW_AT_type(*$C$DW$T$9)
     993                            .dwattr $C$DW$T$89, DW_AT_language(DW_LANG_C)
     994                            .dwattr $C$DW$T$89, DW_AT_decl_file("C:/ti/ccsv6/tools/compiler/ti-cgt-arm_5.2.5/include/yvals
     995                            .dwattr $C$DW$T$89, DW_AT_decl_line(0x1e6)
     996                            .dwattr $C$DW$T$89, DW_AT_decl_column(0x21)
     997                    $C$DW$T$43      .dwtag  DW_TAG_typedef, DW_AT_name("uint16_t")
     998                            .dwattr $C$DW$T$43, DW_AT_type(*$C$DW$T$9)
     999                            .dwattr $C$DW$T$43, DW_AT_language(DW_LANG_C)
    1000                            .dwattr $C$DW$T$43, DW_AT_decl_file("C:/ti/ccsv6/tools/compiler/ti-cgt-arm_5.2.5/include/stdin
    1001                            .dwattr $C$DW$T$43, DW_AT_decl_line(0x2d)
    1002                            .dwattr $C$DW$T$43, DW_AT_decl_column(0x1c)
    1003                    $C$DW$T$90      .dwtag  DW_TAG_typedef, DW_AT_name("uint_least16_t")
    1004                            .dwattr $C$DW$T$90, DW_AT_type(*$C$DW$T$43)
    1005                            .dwattr $C$DW$T$90, DW_AT_language(DW_LANG_C)
    1006                            .dwattr $C$DW$T$90, DW_AT_decl_file("C:/ti/ccsv6/tools/compiler/ti-cgt-arm_5.2.5/include/stdin
    1007                            .dwattr $C$DW$T$90, DW_AT_decl_line(0x3b)
    1008                            .dwattr $C$DW$T$90, DW_AT_decl_column(0x16)
    1009                    $C$DW$T$91      .dwtag  DW_TAG_typedef, DW_AT_name("wchar_t")
    1010                            .dwattr $C$DW$T$91, DW_AT_type(*$C$DW$T$9)
    1011                            .dwattr $C$DW$T$91, DW_AT_language(DW_LANG_C)
    1012                            .dwattr $C$DW$T$91, DW_AT_decl_file("C:/ti/ccsv6/tools/compiler/ti-cgt-arm_5.2.5/include/stdde
    1013                            .dwattr $C$DW$T$91, DW_AT_decl_line(0x41)
    1014                            .dwattr $C$DW$T$91, DW_AT_decl_column(0x1a)
    1015                    $C$DW$T$10      .dwtag  DW_TAG_base_type
    1016                            .dwattr $C$DW$T$10, DW_AT_encoding(DW_ATE_signed)
    1017                            .dwattr $C$DW$T$10, DW_AT_name("int")
    1018                            .dwattr $C$DW$T$10, DW_AT_byte_size(0x04)
    1019                    $C$DW$T$92      .dwtag  DW_TAG_typedef, DW_AT_name("_Ptrdifft")
    1020                            .dwattr $C$DW$T$92, DW_AT_type(*$C$DW$T$10)
    1021                            .dwattr $C$DW$T$92, DW_AT_language(DW_LANG_C)
    1022                            .dwattr $C$DW$T$92, DW_AT_decl_file("C:/ti/ccsv6/tools/compiler/ti-cgt-arm_5.2.5/include/yvals
    1023                            .dwattr $C$DW$T$92, DW_AT_decl_line(0xa9)
    1024                            .dwattr $C$DW$T$92, DW_AT_decl_column(0x1e)
    1025                    $C$DW$T$53      .dwtag  DW_TAG_typedef, DW_AT_name("int32_t")
    1026                            .dwattr $C$DW$T$53, DW_AT_type(*$C$DW$T$10)
    1027                            .dwattr $C$DW$T$53, DW_AT_language(DW_LANG_C)
    1028                            .dwattr $C$DW$T$53, DW_AT_decl_file("C:/ti/ccsv6/tools/compiler/ti-cgt-arm_5.2.5/include/stdin
    1029                            .dwattr $C$DW$T$53, DW_AT_decl_line(0x2e)
    1030                            .dwattr $C$DW$T$53, DW_AT_decl_column(0x1d)
    1031                    $C$DW$T$54      .dwtag  DW_TAG_typedef, DW_AT_name("BaseType_t")
    1032                            .dwattr $C$DW$T$54, DW_AT_type(*$C$DW$T$53)
    1033                            .dwattr $C$DW$T$54, DW_AT_language(DW_LANG_C)
    1034                            .dwattr $C$DW$T$54, DW_AT_decl_file("C:/Users/trilu/Downloads/TI_ARM_Tiva_Projects_EECS_690_Sp
    1035                            .dwattr $C$DW$T$54, DW_AT_decl_line(0x69)
    1036                            .dwattr $C$DW$T$54, DW_AT_decl_column(0x12)
    1037                    
    1038                    $C$DW$T$93      .dwtag  DW_TAG_subroutine_type
    1039                            .dwattr $C$DW$T$93, DW_AT_type(*$C$DW$T$54)
    1040                            .dwattr $C$DW$T$93, DW_AT_language(DW_LANG_C)
    1041                    $C$DW$81        .dwtag  DW_TAG_formal_parameter
    1042                            .dwattr $C$DW$81, DW_AT_type(*$C$DW$T$3)
    1043                            .dwendtag $C$DW$T$93
    1044                    
    1045                    $C$DW$T$94      .dwtag  DW_TAG_pointer_type
TI ARM Assembler PC v5.2.5 Tue May 03 06:24:58 2016

Tools Copyright (c) 1996-2015 Texas Instruments Incorporated
Processor_Initialization_TM4C1294.asm                                PAGE   20

    1046                            .dwattr $C$DW$T$94, DW_AT_type(*$C$DW$T$93)
    1047                            .dwattr $C$DW$T$94, DW_AT_address_class(0x20)
    1048                    $C$DW$T$95      .dwtag  DW_TAG_typedef, DW_AT_name("TaskHookFunction_t")
    1049                            .dwattr $C$DW$T$95, DW_AT_type(*$C$DW$T$94)
    1050                            .dwattr $C$DW$T$95, DW_AT_language(DW_LANG_C)
    1051                            .dwattr $C$DW$T$95, DW_AT_decl_file("C:/Users/trilu/Downloads/TI_ARM_Tiva_Projects_EECS_690_Sp
    1052                            .dwattr $C$DW$T$95, DW_AT_decl_line(0x6d)
    1053                            .dwattr $C$DW$T$95, DW_AT_decl_column(0x16)
    1054                    $C$DW$T$96      .dwtag  DW_TAG_typedef, DW_AT_name("int_fast16_t")
    1055                            .dwattr $C$DW$T$96, DW_AT_type(*$C$DW$T$53)
    1056                            .dwattr $C$DW$T$96, DW_AT_language(DW_LANG_C)
    1057                            .dwattr $C$DW$T$96, DW_AT_decl_file("C:/ti/ccsv6/tools/compiler/ti-cgt-arm_5.2.5/include/stdin
    1058                            .dwattr $C$DW$T$96, DW_AT_decl_line(0x47)
    1059                            .dwattr $C$DW$T$96, DW_AT_decl_column(0x17)
    1060                    $C$DW$T$97      .dwtag  DW_TAG_typedef, DW_AT_name("int_fast32_t")
    1061                            .dwattr $C$DW$T$97, DW_AT_type(*$C$DW$T$53)
    1062                            .dwattr $C$DW$T$97, DW_AT_language(DW_LANG_C)
    1063                            .dwattr $C$DW$T$97, DW_AT_decl_file("C:/ti/ccsv6/tools/compiler/ti-cgt-arm_5.2.5/include/stdin
    1064                            .dwattr $C$DW$T$97, DW_AT_decl_line(0x4a)
    1065                            .dwattr $C$DW$T$97, DW_AT_decl_column(0x17)
    1066                    $C$DW$T$98      .dwtag  DW_TAG_typedef, DW_AT_name("int_fast8_t")
    1067                            .dwattr $C$DW$T$98, DW_AT_type(*$C$DW$T$53)
    1068                            .dwattr $C$DW$T$98, DW_AT_language(DW_LANG_C)
    1069                            .dwattr $C$DW$T$98, DW_AT_decl_file("C:/ti/ccsv6/tools/compiler/ti-cgt-arm_5.2.5/include/stdin
    1070                            .dwattr $C$DW$T$98, DW_AT_decl_line(0x45)
    1071                            .dwattr $C$DW$T$98, DW_AT_decl_column(0x17)
    1072                    $C$DW$T$99      .dwtag  DW_TAG_typedef, DW_AT_name("int_least32_t")
    1073                            .dwattr $C$DW$T$99, DW_AT_type(*$C$DW$T$53)
    1074                            .dwattr $C$DW$T$99, DW_AT_language(DW_LANG_C)
    1075                            .dwattr $C$DW$T$99, DW_AT_decl_file("C:/ti/ccsv6/tools/compiler/ti-cgt-arm_5.2.5/include/stdin
    1076                            .dwattr $C$DW$T$99, DW_AT_decl_line(0x3c)
    1077                            .dwattr $C$DW$T$99, DW_AT_decl_column(0x17)
    1078                    $C$DW$T$100     .dwtag  DW_TAG_typedef, DW_AT_name("portBASE_TYPE")
    1079                            .dwattr $C$DW$T$100, DW_AT_type(*$C$DW$T$53)
    1080                            .dwattr $C$DW$T$100, DW_AT_language(DW_LANG_C)
    1081                            .dwattr $C$DW$T$100, DW_AT_decl_file("C:/Users/trilu/Downloads/TI_ARM_Tiva_Projects_EECS_690_S
    1082                            .dwattr $C$DW$T$100, DW_AT_decl_line(0x66)
    1083                            .dwattr $C$DW$T$100, DW_AT_decl_column(0x12)
    1084                    $C$DW$T$101     .dwtag  DW_TAG_typedef, DW_AT_name("portLONG")
    1085                            .dwattr $C$DW$T$101, DW_AT_type(*$C$DW$T$53)
    1086                            .dwattr $C$DW$T$101, DW_AT_language(DW_LANG_C)
    1087                            .dwattr $C$DW$T$101, DW_AT_decl_file("C:/Users/trilu/Downloads/TI_ARM_Tiva_Projects_EECS_690_S
    1088                            .dwattr $C$DW$T$101, DW_AT_decl_line(0x63)
    1089                            .dwattr $C$DW$T$101, DW_AT_decl_column(0x12)
    1090                    $C$DW$T$102     .dwtag  DW_TAG_typedef, DW_AT_name("intptr_t")
    1091                            .dwattr $C$DW$T$102, DW_AT_type(*$C$DW$T$10)
    1092                            .dwattr $C$DW$T$102, DW_AT_language(DW_LANG_C)
    1093                            .dwattr $C$DW$T$102, DW_AT_decl_file("C:/ti/ccsv6/tools/compiler/ti-cgt-arm_5.2.5/include/stdi
    1094                            .dwattr $C$DW$T$102, DW_AT_decl_line(0x52)
    1095                            .dwattr $C$DW$T$102, DW_AT_decl_column(0x1a)
    1096                    $C$DW$T$103     .dwtag  DW_TAG_typedef, DW_AT_name("ptrdiff_t")
    1097                            .dwattr $C$DW$T$103, DW_AT_type(*$C$DW$T$10)
    1098                            .dwattr $C$DW$T$103, DW_AT_language(DW_LANG_C)
    1099                            .dwattr $C$DW$T$103, DW_AT_decl_file("C:/ti/ccsv6/tools/compiler/ti-cgt-arm_5.2.5/include/stdd
    1100                            .dwattr $C$DW$T$103, DW_AT_decl_line(0x36)
TI ARM Assembler PC v5.2.5 Tue May 03 06:24:58 2016

Tools Copyright (c) 1996-2015 Texas Instruments Incorporated
Processor_Initialization_TM4C1294.asm                                PAGE   21

    1101                            .dwattr $C$DW$T$103, DW_AT_decl_column(0x1c)
    1102                    $C$DW$T$11      .dwtag  DW_TAG_base_type
    1103                            .dwattr $C$DW$T$11, DW_AT_encoding(DW_ATE_unsigned)
    1104                            .dwattr $C$DW$T$11, DW_AT_name("unsigned int")
    1105                            .dwattr $C$DW$T$11, DW_AT_byte_size(0x04)
    1106                    $C$DW$T$104     .dwtag  DW_TAG_typedef, DW_AT_name("_Sizet")
    1107                            .dwattr $C$DW$T$104, DW_AT_type(*$C$DW$T$11)
    1108                            .dwattr $C$DW$T$104, DW_AT_language(DW_LANG_C)
    1109                            .dwattr $C$DW$T$104, DW_AT_decl_file("C:/ti/ccsv6/tools/compiler/ti-cgt-arm_5.2.5/include/yval
    1110                            .dwattr $C$DW$T$104, DW_AT_decl_line(0xab)
    1111                            .dwattr $C$DW$T$104, DW_AT_decl_column(0x1a)
    1112                    $C$DW$T$21      .dwtag  DW_TAG_typedef, DW_AT_name("size_t")
    1113                            .dwattr $C$DW$T$21, DW_AT_type(*$C$DW$T$11)
    1114                            .dwattr $C$DW$T$21, DW_AT_language(DW_LANG_C)
    1115                            .dwattr $C$DW$T$21, DW_AT_decl_file("C:/ti/ccsv6/tools/compiler/ti-cgt-arm_5.2.5/include/stdde
    1116                            .dwattr $C$DW$T$21, DW_AT_decl_line(0x3a)
    1117                            .dwattr $C$DW$T$21, DW_AT_decl_column(0x19)
    1118                    $C$DW$T$23      .dwtag  DW_TAG_typedef, DW_AT_name("uint32_t")
    1119                            .dwattr $C$DW$T$23, DW_AT_type(*$C$DW$T$11)
    1120                            .dwattr $C$DW$T$23, DW_AT_language(DW_LANG_C)
    1121                            .dwattr $C$DW$T$23, DW_AT_decl_file("C:/ti/ccsv6/tools/compiler/ti-cgt-arm_5.2.5/include/stdin
    1122                            .dwattr $C$DW$T$23, DW_AT_decl_line(0x2f)
    1123                            .dwattr $C$DW$T$23, DW_AT_decl_column(0x1c)
    1124                    $C$DW$T$44      .dwtag  DW_TAG_typedef, DW_AT_name("StackType_t")
    1125                            .dwattr $C$DW$T$44, DW_AT_type(*$C$DW$T$23)
    1126                            .dwattr $C$DW$T$44, DW_AT_language(DW_LANG_C)
    1127                            .dwattr $C$DW$T$44, DW_AT_decl_file("C:/Users/trilu/Downloads/TI_ARM_Tiva_Projects_EECS_690_Sp
    1128                            .dwattr $C$DW$T$44, DW_AT_decl_line(0x68)
    1129                            .dwattr $C$DW$T$44, DW_AT_decl_column(0x12)
    1130                    $C$DW$T$45      .dwtag  DW_TAG_pointer_type
    1131                            .dwattr $C$DW$T$45, DW_AT_type(*$C$DW$T$44)
    1132                            .dwattr $C$DW$T$45, DW_AT_address_class(0x20)
    1133                    $C$DW$T$31      .dwtag  DW_TAG_typedef, DW_AT_name("TickType_t")
    1134                            .dwattr $C$DW$T$31, DW_AT_type(*$C$DW$T$23)
    1135                            .dwattr $C$DW$T$31, DW_AT_language(DW_LANG_C)
    1136                            .dwattr $C$DW$T$31, DW_AT_decl_file("C:/Users/trilu/Downloads/TI_ARM_Tiva_Projects_EECS_690_Sp
    1137                            .dwattr $C$DW$T$31, DW_AT_decl_line(0x70)
    1138                            .dwattr $C$DW$T$31, DW_AT_decl_column(0x13)
    1139                    $C$DW$T$26      .dwtag  DW_TAG_typedef, DW_AT_name("UBaseType_t")
    1140                            .dwattr $C$DW$T$26, DW_AT_type(*$C$DW$T$23)
    1141                            .dwattr $C$DW$T$26, DW_AT_language(DW_LANG_C)
    1142                            .dwattr $C$DW$T$26, DW_AT_decl_file("C:/Users/trilu/Downloads/TI_ARM_Tiva_Projects_EECS_690_Sp
    1143                            .dwattr $C$DW$T$26, DW_AT_decl_line(0x6a)
    1144                            .dwattr $C$DW$T$26, DW_AT_decl_column(0x12)
    1145                    $C$DW$T$63      .dwtag  DW_TAG_const_type
    1146                            .dwattr $C$DW$T$63, DW_AT_type(*$C$DW$T$26)
    1147                    $C$DW$T$108     .dwtag  DW_TAG_typedef, DW_AT_name("portSTACK_TYPE")
    1148                            .dwattr $C$DW$T$108, DW_AT_type(*$C$DW$T$23)
    1149                            .dwattr $C$DW$T$108, DW_AT_language(DW_LANG_C)
    1150                            .dwattr $C$DW$T$108, DW_AT_decl_file("C:/Users/trilu/Downloads/TI_ARM_Tiva_Projects_EECS_690_S
    1151                            .dwattr $C$DW$T$108, DW_AT_decl_line(0x65)
    1152                            .dwattr $C$DW$T$108, DW_AT_decl_column(0x12)
    1153                    $C$DW$T$109     .dwtag  DW_TAG_typedef, DW_AT_name("uint_fast16_t")
    1154                            .dwattr $C$DW$T$109, DW_AT_type(*$C$DW$T$23)
    1155                            .dwattr $C$DW$T$109, DW_AT_language(DW_LANG_C)
TI ARM Assembler PC v5.2.5 Tue May 03 06:24:58 2016

Tools Copyright (c) 1996-2015 Texas Instruments Incorporated
Processor_Initialization_TM4C1294.asm                                PAGE   22

    1156                            .dwattr $C$DW$T$109, DW_AT_decl_file("C:/ti/ccsv6/tools/compiler/ti-cgt-arm_5.2.5/include/stdi
    1157                            .dwattr $C$DW$T$109, DW_AT_decl_line(0x48)
    1158                            .dwattr $C$DW$T$109, DW_AT_decl_column(0x16)
    1159                    $C$DW$T$110     .dwtag  DW_TAG_typedef, DW_AT_name("uint_fast32_t")
    1160                            .dwattr $C$DW$T$110, DW_AT_type(*$C$DW$T$23)
    1161                            .dwattr $C$DW$T$110, DW_AT_language(DW_LANG_C)
    1162                            .dwattr $C$DW$T$110, DW_AT_decl_file("C:/ti/ccsv6/tools/compiler/ti-cgt-arm_5.2.5/include/stdi
    1163                            .dwattr $C$DW$T$110, DW_AT_decl_line(0x4b)
    1164                            .dwattr $C$DW$T$110, DW_AT_decl_column(0x16)
    1165                    $C$DW$T$111     .dwtag  DW_TAG_typedef, DW_AT_name("uint_fast8_t")
    1166                            .dwattr $C$DW$T$111, DW_AT_type(*$C$DW$T$23)
    1167                            .dwattr $C$DW$T$111, DW_AT_language(DW_LANG_C)
    1168                            .dwattr $C$DW$T$111, DW_AT_decl_file("C:/ti/ccsv6/tools/compiler/ti-cgt-arm_5.2.5/include/stdi
    1169                            .dwattr $C$DW$T$111, DW_AT_decl_line(0x46)
    1170                            .dwattr $C$DW$T$111, DW_AT_decl_column(0x16)
    1171                    $C$DW$T$112     .dwtag  DW_TAG_typedef, DW_AT_name("uint_least32_t")
    1172                            .dwattr $C$DW$T$112, DW_AT_type(*$C$DW$T$23)
    1173                            .dwattr $C$DW$T$112, DW_AT_language(DW_LANG_C)
    1174                            .dwattr $C$DW$T$112, DW_AT_decl_file("C:/ti/ccsv6/tools/compiler/ti-cgt-arm_5.2.5/include/stdi
    1175                            .dwattr $C$DW$T$112, DW_AT_decl_line(0x3d)
    1176                            .dwattr $C$DW$T$112, DW_AT_decl_column(0x16)
    1177                    $C$DW$T$113     .dwtag  DW_TAG_typedef, DW_AT_name("uintptr_t")
    1178                            .dwattr $C$DW$T$113, DW_AT_type(*$C$DW$T$11)
    1179                            .dwattr $C$DW$T$113, DW_AT_language(DW_LANG_C)
    1180                            .dwattr $C$DW$T$113, DW_AT_decl_file("C:/ti/ccsv6/tools/compiler/ti-cgt-arm_5.2.5/include/stdi
    1181                            .dwattr $C$DW$T$113, DW_AT_decl_line(0x53)
    1182                            .dwattr $C$DW$T$113, DW_AT_decl_column(0x1a)
    1183                    $C$DW$T$12      .dwtag  DW_TAG_base_type
    1184                            .dwattr $C$DW$T$12, DW_AT_encoding(DW_ATE_signed)
    1185                            .dwattr $C$DW$T$12, DW_AT_name("long")
    1186                            .dwattr $C$DW$T$12, DW_AT_byte_size(0x04)
    1187                    $C$DW$T$114     .dwtag  DW_TAG_typedef, DW_AT_name("_Int32t")
    1188                            .dwattr $C$DW$T$114, DW_AT_type(*$C$DW$T$12)
    1189                            .dwattr $C$DW$T$114, DW_AT_language(DW_LANG_C)
    1190                            .dwattr $C$DW$T$114, DW_AT_decl_file("C:/ti/ccsv6/tools/compiler/ti-cgt-arm_5.2.5/include/yval
    1191                            .dwattr $C$DW$T$114, DW_AT_decl_line(0xa6)
    1192                            .dwattr $C$DW$T$114, DW_AT_decl_column(0x0e)
    1193                    $C$DW$T$13      .dwtag  DW_TAG_base_type
    1194                            .dwattr $C$DW$T$13, DW_AT_encoding(DW_ATE_unsigned)
    1195                            .dwattr $C$DW$T$13, DW_AT_name("unsigned long")
    1196                            .dwattr $C$DW$T$13, DW_AT_byte_size(0x04)
    1197                    $C$DW$T$115     .dwtag  DW_TAG_typedef, DW_AT_name("_Uint32t")
    1198                            .dwattr $C$DW$T$115, DW_AT_type(*$C$DW$T$13)
    1199                            .dwattr $C$DW$T$115, DW_AT_language(DW_LANG_C)
    1200                            .dwattr $C$DW$T$115, DW_AT_decl_file("C:/ti/ccsv6/tools/compiler/ti-cgt-arm_5.2.5/include/yval
    1201                            .dwattr $C$DW$T$115, DW_AT_decl_line(0xa7)
    1202                            .dwattr $C$DW$T$115, DW_AT_decl_column(0x17)
    1203                    $C$DW$T$14      .dwtag  DW_TAG_base_type
    1204                            .dwattr $C$DW$T$14, DW_AT_encoding(DW_ATE_signed)
    1205                            .dwattr $C$DW$T$14, DW_AT_name("long long")
    1206                            .dwattr $C$DW$T$14, DW_AT_byte_size(0x08)
    1207                    $C$DW$T$116     .dwtag  DW_TAG_typedef, DW_AT_name("_Longlong")
    1208                            .dwattr $C$DW$T$116, DW_AT_type(*$C$DW$T$14)
    1209                            .dwattr $C$DW$T$116, DW_AT_language(DW_LANG_C)
    1210                            .dwattr $C$DW$T$116, DW_AT_decl_file("C:/ti/ccsv6/tools/compiler/ti-cgt-arm_5.2.5/include/yval
TI ARM Assembler PC v5.2.5 Tue May 03 06:24:58 2016

Tools Copyright (c) 1996-2015 Texas Instruments Incorporated
Processor_Initialization_TM4C1294.asm                                PAGE   23

    1211                            .dwattr $C$DW$T$116, DW_AT_decl_line(0x1b5)
    1212                            .dwattr $C$DW$T$116, DW_AT_decl_column(0x13)
    1213                    $C$DW$T$117     .dwtag  DW_TAG_typedef, DW_AT_name("int64_t")
    1214                            .dwattr $C$DW$T$117, DW_AT_type(*$C$DW$T$14)
    1215                            .dwattr $C$DW$T$117, DW_AT_language(DW_LANG_C)
    1216                            .dwattr $C$DW$T$117, DW_AT_decl_file("C:/ti/ccsv6/tools/compiler/ti-cgt-arm_5.2.5/include/stdi
    1217                            .dwattr $C$DW$T$117, DW_AT_decl_line(0x32)
    1218                            .dwattr $C$DW$T$117, DW_AT_decl_column(0x21)
    1219                    $C$DW$T$118     .dwtag  DW_TAG_typedef, DW_AT_name("int_fast64_t")
    1220                            .dwattr $C$DW$T$118, DW_AT_type(*$C$DW$T$117)
    1221                            .dwattr $C$DW$T$118, DW_AT_language(DW_LANG_C)
    1222                            .dwattr $C$DW$T$118, DW_AT_decl_file("C:/ti/ccsv6/tools/compiler/ti-cgt-arm_5.2.5/include/stdi
    1223                            .dwattr $C$DW$T$118, DW_AT_decl_line(0x4e)
    1224                            .dwattr $C$DW$T$118, DW_AT_decl_column(0x17)
    1225                    $C$DW$T$119     .dwtag  DW_TAG_typedef, DW_AT_name("int_least64_t")
    1226                            .dwattr $C$DW$T$119, DW_AT_type(*$C$DW$T$117)
    1227                            .dwattr $C$DW$T$119, DW_AT_language(DW_LANG_C)
    1228                            .dwattr $C$DW$T$119, DW_AT_decl_file("C:/ti/ccsv6/tools/compiler/ti-cgt-arm_5.2.5/include/stdi
    1229                            .dwattr $C$DW$T$119, DW_AT_decl_line(0x40)
    1230                            .dwattr $C$DW$T$119, DW_AT_decl_column(0x17)
    1231                    $C$DW$T$120     .dwtag  DW_TAG_typedef, DW_AT_name("portDOUBLE")
    1232                            .dwattr $C$DW$T$120, DW_AT_type(*$C$DW$T$117)
    1233                            .dwattr $C$DW$T$120, DW_AT_language(DW_LANG_C)
    1234                            .dwattr $C$DW$T$120, DW_AT_decl_file("C:/Users/trilu/Downloads/TI_ARM_Tiva_Projects_EECS_690_S
    1235                            .dwattr $C$DW$T$120, DW_AT_decl_line(0x62)
    1236                            .dwattr $C$DW$T$120, DW_AT_decl_column(0x12)
    1237                    $C$DW$T$121     .dwtag  DW_TAG_typedef, DW_AT_name("intmax_t")
    1238                            .dwattr $C$DW$T$121, DW_AT_type(*$C$DW$T$14)
    1239                            .dwattr $C$DW$T$121, DW_AT_language(DW_LANG_C)
    1240                            .dwattr $C$DW$T$121, DW_AT_decl_file("C:/ti/ccsv6/tools/compiler/ti-cgt-arm_5.2.5/include/stdi
    1241                            .dwattr $C$DW$T$121, DW_AT_decl_line(0x56)
    1242                            .dwattr $C$DW$T$121, DW_AT_decl_column(0x20)
    1243                    $C$DW$T$15      .dwtag  DW_TAG_base_type
    1244                            .dwattr $C$DW$T$15, DW_AT_encoding(DW_ATE_unsigned)
    1245                            .dwattr $C$DW$T$15, DW_AT_name("unsigned long long")
    1246                            .dwattr $C$DW$T$15, DW_AT_byte_size(0x08)
    1247                    $C$DW$T$122     .dwtag  DW_TAG_typedef, DW_AT_name("_ULonglong")
    1248                            .dwattr $C$DW$T$122, DW_AT_type(*$C$DW$T$15)
    1249                            .dwattr $C$DW$T$122, DW_AT_language(DW_LANG_C)
    1250                            .dwattr $C$DW$T$122, DW_AT_decl_file("C:/ti/ccsv6/tools/compiler/ti-cgt-arm_5.2.5/include/yval
    1251                            .dwattr $C$DW$T$122, DW_AT_decl_line(0x1b6)
    1252                            .dwattr $C$DW$T$122, DW_AT_decl_column(0x14)
    1253                    $C$DW$T$123     .dwtag  DW_TAG_typedef, DW_AT_name("uint64_t")
    1254                            .dwattr $C$DW$T$123, DW_AT_type(*$C$DW$T$15)
    1255                            .dwattr $C$DW$T$123, DW_AT_language(DW_LANG_C)
    1256                            .dwattr $C$DW$T$123, DW_AT_decl_file("C:/ti/ccsv6/tools/compiler/ti-cgt-arm_5.2.5/include/stdi
    1257                            .dwattr $C$DW$T$123, DW_AT_decl_line(0x33)
    1258                            .dwattr $C$DW$T$123, DW_AT_decl_column(0x20)
    1259                    $C$DW$T$124     .dwtag  DW_TAG_typedef, DW_AT_name("uint_fast64_t")
    1260                            .dwattr $C$DW$T$124, DW_AT_type(*$C$DW$T$123)
    1261                            .dwattr $C$DW$T$124, DW_AT_language(DW_LANG_C)
    1262                            .dwattr $C$DW$T$124, DW_AT_decl_file("C:/ti/ccsv6/tools/compiler/ti-cgt-arm_5.2.5/include/stdi
    1263                            .dwattr $C$DW$T$124, DW_AT_decl_line(0x4f)
    1264                            .dwattr $C$DW$T$124, DW_AT_decl_column(0x16)
    1265                    $C$DW$T$125     .dwtag  DW_TAG_typedef, DW_AT_name("uint_least64_t")
TI ARM Assembler PC v5.2.5 Tue May 03 06:24:58 2016

Tools Copyright (c) 1996-2015 Texas Instruments Incorporated
Processor_Initialization_TM4C1294.asm                                PAGE   24

    1266                            .dwattr $C$DW$T$125, DW_AT_type(*$C$DW$T$123)
    1267                            .dwattr $C$DW$T$125, DW_AT_language(DW_LANG_C)
    1268                            .dwattr $C$DW$T$125, DW_AT_decl_file("C:/ti/ccsv6/tools/compiler/ti-cgt-arm_5.2.5/include/stdi
    1269                            .dwattr $C$DW$T$125, DW_AT_decl_line(0x41)
    1270                            .dwattr $C$DW$T$125, DW_AT_decl_column(0x16)
    1271                    $C$DW$T$126     .dwtag  DW_TAG_typedef, DW_AT_name("uintmax_t")
    1272                            .dwattr $C$DW$T$126, DW_AT_type(*$C$DW$T$15)
    1273                            .dwattr $C$DW$T$126, DW_AT_language(DW_LANG_C)
    1274                            .dwattr $C$DW$T$126, DW_AT_decl_file("C:/ti/ccsv6/tools/compiler/ti-cgt-arm_5.2.5/include/stdi
    1275                            .dwattr $C$DW$T$126, DW_AT_decl_line(0x57)
    1276                            .dwattr $C$DW$T$126, DW_AT_decl_column(0x20)
    1277                    $C$DW$T$16      .dwtag  DW_TAG_base_type
    1278                            .dwattr $C$DW$T$16, DW_AT_encoding(DW_ATE_float)
    1279                            .dwattr $C$DW$T$16, DW_AT_name("float")
    1280                            .dwattr $C$DW$T$16, DW_AT_byte_size(0x04)
    1281                    $C$DW$T$127     .dwtag  DW_TAG_typedef, DW_AT_name("portFLOAT")
    1282                            .dwattr $C$DW$T$127, DW_AT_type(*$C$DW$T$16)
    1283                            .dwattr $C$DW$T$127, DW_AT_language(DW_LANG_C)
    1284                            .dwattr $C$DW$T$127, DW_AT_decl_file("C:/Users/trilu/Downloads/TI_ARM_Tiva_Projects_EECS_690_S
    1285                            .dwattr $C$DW$T$127, DW_AT_decl_line(0x61)
    1286                            .dwattr $C$DW$T$127, DW_AT_decl_column(0x10)
    1287                    $C$DW$T$17      .dwtag  DW_TAG_base_type
    1288                            .dwattr $C$DW$T$17, DW_AT_encoding(DW_ATE_float)
    1289                            .dwattr $C$DW$T$17, DW_AT_name("double")
    1290                            .dwattr $C$DW$T$17, DW_AT_byte_size(0x08)
    1291                    $C$DW$T$18      .dwtag  DW_TAG_base_type
    1292                            .dwattr $C$DW$T$18, DW_AT_encoding(DW_ATE_float)
    1293                            .dwattr $C$DW$T$18, DW_AT_name("long double")
    1294                            .dwattr $C$DW$T$18, DW_AT_byte_size(0x08)
    1295                    $C$DW$T$128     .dwtag  DW_TAG_typedef, DW_AT_name("_Sysch_t")
    1296                            .dwattr $C$DW$T$128, DW_AT_type(*$C$DW$T$6)
    1297                            .dwattr $C$DW$T$128, DW_AT_language(DW_LANG_C)
    1298                            .dwattr $C$DW$T$128, DW_AT_decl_file("C:/ti/ccsv6/tools/compiler/ti-cgt-arm_5.2.5/include/yval
    1299                            .dwattr $C$DW$T$128, DW_AT_decl_line(0x218)
    1300                            .dwattr $C$DW$T$128, DW_AT_decl_column(0x0e)
    1301                    $C$DW$T$40      .dwtag  DW_TAG_const_type
    1302                            .dwattr $C$DW$T$40, DW_AT_type(*$C$DW$T$6)
    1303                    $C$DW$T$41      .dwtag  DW_TAG_pointer_type
    1304                            .dwattr $C$DW$T$41, DW_AT_type(*$C$DW$T$40)
    1305                            .dwattr $C$DW$T$41, DW_AT_address_class(0x20)
    1306                    $C$DW$T$42      .dwtag  DW_TAG_const_type
    1307                            .dwattr $C$DW$T$42, DW_AT_type(*$C$DW$T$41)
    1308                    $C$DW$T$129     .dwtag  DW_TAG_pointer_type
    1309                            .dwattr $C$DW$T$129, DW_AT_type(*$C$DW$T$6)
    1310                            .dwattr $C$DW$T$129, DW_AT_address_class(0x20)
    1311                    $C$DW$T$130     .dwtag  DW_TAG_typedef, DW_AT_name("__builtin_va_list")
    1312                            .dwattr $C$DW$T$130, DW_AT_type(*$C$DW$T$129)
    1313                            .dwattr $C$DW$T$130, DW_AT_language(DW_LANG_C)
    1314                            .dwattr $C$DW$T$130, DW_AT_decl_file("../Drivers/Processor_Initialization_TM4C1294.c")
    1315                            .dwattr $C$DW$T$130, DW_AT_decl_line(0x9c)
    1316                            .dwattr $C$DW$T$130, DW_AT_decl_column(0x01)
    1317                    
    1318                    $C$DW$T$25      .dwtag  DW_TAG_structure_type
    1319                            .dwattr $C$DW$T$25, DW_AT_name("__va_list")
    1320                            .dwattr $C$DW$T$25, DW_AT_byte_size(0x04)
TI ARM Assembler PC v5.2.5 Tue May 03 06:24:58 2016

Tools Copyright (c) 1996-2015 Texas Instruments Incorporated
Processor_Initialization_TM4C1294.asm                                PAGE   25

    1321                    $C$DW$82        .dwtag  DW_TAG_member
    1322                            .dwattr $C$DW$82, DW_AT_type(*$C$DW$T$3)
    1323                            .dwattr $C$DW$82, DW_AT_name("__ap")
    1324                            .dwattr $C$DW$82, DW_AT_TI_symbol_name("__ap")
    1325                            .dwattr $C$DW$82, DW_AT_data_member_location[DW_OP_plus_uconst 0x0]
    1326                            .dwattr $C$DW$82, DW_AT_accessibility(DW_ACCESS_public)
    1327                            .dwattr $C$DW$82, DW_AT_decl_file("C:/ti/ccsv6/tools/compiler/ti-cgt-arm_5.2.5/include/stdarg.
    1328                            .dwattr $C$DW$82, DW_AT_decl_line(0x36)
    1329                            .dwattr $C$DW$82, DW_AT_decl_column(0x0c)
    1330                            .dwendtag $C$DW$T$25
    1331                    
    1332                            .dwattr $C$DW$T$25, DW_AT_decl_file("C:/ti/ccsv6/tools/compiler/ti-cgt-arm_5.2.5/include/stdar
    1333                            .dwattr $C$DW$T$25, DW_AT_decl_line(0x35)
    1334                            .dwattr $C$DW$T$25, DW_AT_decl_column(0x10)
    1335                    $C$DW$T$131     .dwtag  DW_TAG_typedef, DW_AT_name("va_list")
    1336                            .dwattr $C$DW$T$131, DW_AT_type(*$C$DW$T$25)
    1337                            .dwattr $C$DW$T$131, DW_AT_language(DW_LANG_C)
    1338                            .dwattr $C$DW$T$131, DW_AT_decl_file("C:/ti/ccsv6/tools/compiler/ti-cgt-arm_5.2.5/include/stda
    1339                            .dwattr $C$DW$T$131, DW_AT_decl_line(0x37)
    1340                            .dwattr $C$DW$T$131, DW_AT_decl_column(0x03)
    1341                    $C$DW$T$132     .dwtag  DW_TAG_typedef, DW_AT_name("_Va_list")
    1342                            .dwattr $C$DW$T$132, DW_AT_type(*$C$DW$T$131)
    1343                            .dwattr $C$DW$T$132, DW_AT_language(DW_LANG_C)
    1344                            .dwattr $C$DW$T$132, DW_AT_decl_file("C:/ti/ccsv6/tools/compiler/ti-cgt-arm_5.2.5/include/yval
    1345                            .dwattr $C$DW$T$132, DW_AT_decl_line(0x1f6)
    1346                            .dwattr $C$DW$T$132, DW_AT_decl_column(0x17)
    1347                    
    1348                    $C$DW$T$30      .dwtag  DW_TAG_structure_type
    1349                            .dwattr $C$DW$T$30, DW_AT_name("xLIST")
    1350                            .dwattr $C$DW$T$30, DW_AT_byte_size(0x14)
    1351                    $C$DW$83        .dwtag  DW_TAG_member
    1352                            .dwattr $C$DW$83, DW_AT_type(*$C$DW$T$26)
    1353                            .dwattr $C$DW$83, DW_AT_name("uxNumberOfItems")
    1354                            .dwattr $C$DW$83, DW_AT_TI_symbol_name("uxNumberOfItems")
    1355                            .dwattr $C$DW$83, DW_AT_data_member_location[DW_OP_plus_uconst 0x0]
    1356                            .dwattr $C$DW$83, DW_AT_accessibility(DW_ACCESS_public)
    1357                            .dwattr $C$DW$83, DW_AT_decl_file("C:\Users\trilu\Downloads\TI_ARM_Tiva_Projects_EECS_690_Sp16
    1358                            .dwattr $C$DW$83, DW_AT_decl_line(0xd0)
    1359                            .dwattr $C$DW$83, DW_AT_decl_column(0x22)
    1360                    $C$DW$84        .dwtag  DW_TAG_member
    1361                            .dwattr $C$DW$84, DW_AT_type(*$C$DW$T$28)
    1362                            .dwattr $C$DW$84, DW_AT_name("pxIndex")
    1363                            .dwattr $C$DW$84, DW_AT_TI_symbol_name("pxIndex")
    1364                            .dwattr $C$DW$84, DW_AT_data_member_location[DW_OP_plus_uconst 0x4]
    1365                            .dwattr $C$DW$84, DW_AT_accessibility(DW_ACCESS_public)
    1366                            .dwattr $C$DW$84, DW_AT_decl_file("C:\Users\trilu\Downloads\TI_ARM_Tiva_Projects_EECS_690_Sp16
    1367                            .dwattr $C$DW$84, DW_AT_decl_line(0xd1)
    1368                            .dwattr $C$DW$84, DW_AT_decl_column(0x23)
    1369                    $C$DW$85        .dwtag  DW_TAG_member
    1370                            .dwattr $C$DW$85, DW_AT_type(*$C$DW$T$29)
    1371                            .dwattr $C$DW$85, DW_AT_name("xListEnd")
    1372                            .dwattr $C$DW$85, DW_AT_TI_symbol_name("xListEnd")
    1373                            .dwattr $C$DW$85, DW_AT_data_member_location[DW_OP_plus_uconst 0x8]
    1374                            .dwattr $C$DW$85, DW_AT_accessibility(DW_ACCESS_public)
    1375                            .dwattr $C$DW$85, DW_AT_decl_file("C:\Users\trilu\Downloads\TI_ARM_Tiva_Projects_EECS_690_Sp16
TI ARM Assembler PC v5.2.5 Tue May 03 06:24:58 2016

Tools Copyright (c) 1996-2015 Texas Instruments Incorporated
Processor_Initialization_TM4C1294.asm                                PAGE   26

    1376                            .dwattr $C$DW$85, DW_AT_decl_line(0xd2)
    1377                            .dwattr $C$DW$85, DW_AT_decl_column(0x11)
    1378                            .dwendtag $C$DW$T$30
    1379                    
    1380                            .dwattr $C$DW$T$30, DW_AT_decl_file("C:\Users\trilu\Downloads\TI_ARM_Tiva_Projects_EECS_690_Sp
    1381                            .dwattr $C$DW$T$30, DW_AT_decl_line(0xcd)
    1382                            .dwattr $C$DW$T$30, DW_AT_decl_column(0x10)
    1383                    $C$DW$T$133     .dwtag  DW_TAG_typedef, DW_AT_name("List_t")
    1384                            .dwattr $C$DW$T$133, DW_AT_type(*$C$DW$T$30)
    1385                            .dwattr $C$DW$T$133, DW_AT_language(DW_LANG_C)
    1386                            .dwattr $C$DW$T$133, DW_AT_decl_file("C:\Users\trilu\Downloads\TI_ARM_Tiva_Projects_EECS_690_S
    1387                            .dwattr $C$DW$T$133, DW_AT_decl_line(0xd4)
    1388                            .dwattr $C$DW$T$133, DW_AT_decl_column(0x03)
    1389                    
    1390                    $C$DW$T$33      .dwtag  DW_TAG_structure_type
    1391                            .dwattr $C$DW$T$33, DW_AT_name("xLIST_ITEM")
    1392                            .dwattr $C$DW$T$33, DW_AT_byte_size(0x14)
    1393                    $C$DW$86        .dwtag  DW_TAG_member
    1394                            .dwattr $C$DW$86, DW_AT_type(*$C$DW$T$31)
    1395                            .dwattr $C$DW$86, DW_AT_name("xItemValue")
    1396                            .dwattr $C$DW$86, DW_AT_TI_symbol_name("xItemValue")
    1397                            .dwattr $C$DW$86, DW_AT_data_member_location[DW_OP_plus_uconst 0x0]
    1398                            .dwattr $C$DW$86, DW_AT_accessibility(DW_ACCESS_public)
    1399                            .dwattr $C$DW$86, DW_AT_decl_file("C:\Users\trilu\Downloads\TI_ARM_Tiva_Projects_EECS_690_Sp16
    1400                            .dwattr $C$DW$86, DW_AT_decl_line(0xb8)
    1401                            .dwattr $C$DW$86, DW_AT_decl_column(0x21)
    1402                    $C$DW$87        .dwtag  DW_TAG_member
    1403                            .dwattr $C$DW$87, DW_AT_type(*$C$DW$T$32)
    1404                            .dwattr $C$DW$87, DW_AT_name("pxNext")
    1405                            .dwattr $C$DW$87, DW_AT_TI_symbol_name("pxNext")
    1406                            .dwattr $C$DW$87, DW_AT_data_member_location[DW_OP_plus_uconst 0x4]
    1407                            .dwattr $C$DW$87, DW_AT_accessibility(DW_ACCESS_public)
    1408                            .dwattr $C$DW$87, DW_AT_decl_file("C:\Users\trilu\Downloads\TI_ARM_Tiva_Projects_EECS_690_Sp16
    1409                            .dwattr $C$DW$87, DW_AT_decl_line(0xb9)
    1410                            .dwattr $C$DW$87, DW_AT_decl_column(0x2a)
    1411                    $C$DW$88        .dwtag  DW_TAG_member
    1412                            .dwattr $C$DW$88, DW_AT_type(*$C$DW$T$32)
    1413                            .dwattr $C$DW$88, DW_AT_name("pxPrevious")
    1414                            .dwattr $C$DW$88, DW_AT_TI_symbol_name("pxPrevious")
    1415                            .dwattr $C$DW$88, DW_AT_data_member_location[DW_OP_plus_uconst 0x8]
    1416                            .dwattr $C$DW$88, DW_AT_accessibility(DW_ACCESS_public)
    1417                            .dwattr $C$DW$88, DW_AT_decl_file("C:\Users\trilu\Downloads\TI_ARM_Tiva_Projects_EECS_690_Sp16
    1418                            .dwattr $C$DW$88, DW_AT_decl_line(0xba)
    1419                            .dwattr $C$DW$88, DW_AT_decl_column(0x2a)
    1420                    $C$DW$89        .dwtag  DW_TAG_member
    1421                            .dwattr $C$DW$89, DW_AT_type(*$C$DW$T$3)
    1422                            .dwattr $C$DW$89, DW_AT_name("pvOwner")
    1423                            .dwattr $C$DW$89, DW_AT_TI_symbol_name("pvOwner")
    1424                            .dwattr $C$DW$89, DW_AT_data_member_location[DW_OP_plus_uconst 0xc]
    1425                            .dwattr $C$DW$89, DW_AT_accessibility(DW_ACCESS_public)
    1426                            .dwattr $C$DW$89, DW_AT_decl_file("C:\Users\trilu\Downloads\TI_ARM_Tiva_Projects_EECS_690_Sp16
    1427                            .dwattr $C$DW$89, DW_AT_decl_line(0xbb)
    1428                            .dwattr $C$DW$89, DW_AT_decl_column(0x09)
    1429                    $C$DW$90        .dwtag  DW_TAG_member
    1430                            .dwattr $C$DW$90, DW_AT_type(*$C$DW$T$3)
TI ARM Assembler PC v5.2.5 Tue May 03 06:24:58 2016

Tools Copyright (c) 1996-2015 Texas Instruments Incorporated
Processor_Initialization_TM4C1294.asm                                PAGE   27

    1431                            .dwattr $C$DW$90, DW_AT_name("pvContainer")
    1432                            .dwattr $C$DW$90, DW_AT_TI_symbol_name("pvContainer")
    1433                            .dwattr $C$DW$90, DW_AT_data_member_location[DW_OP_plus_uconst 0x10]
    1434                            .dwattr $C$DW$90, DW_AT_accessibility(DW_ACCESS_public)
    1435                            .dwattr $C$DW$90, DW_AT_decl_file("C:\Users\trilu\Downloads\TI_ARM_Tiva_Projects_EECS_690_Sp16
    1436                            .dwattr $C$DW$90, DW_AT_decl_line(0xbc)
    1437                            .dwattr $C$DW$90, DW_AT_decl_column(0x1d)
    1438                            .dwendtag $C$DW$T$33
    1439                    
    1440                            .dwattr $C$DW$T$33, DW_AT_decl_file("C:\Users\trilu\Downloads\TI_ARM_Tiva_Projects_EECS_690_Sp
    1441                            .dwattr $C$DW$T$33, DW_AT_decl_line(0xb5)
    1442                            .dwattr $C$DW$T$33, DW_AT_decl_column(0x08)
    1443                    $C$DW$T$27      .dwtag  DW_TAG_typedef, DW_AT_name("ListItem_t")
    1444                            .dwattr $C$DW$T$27, DW_AT_type(*$C$DW$T$33)
    1445                            .dwattr $C$DW$T$27, DW_AT_language(DW_LANG_C)
    1446                            .dwattr $C$DW$T$27, DW_AT_decl_file("C:\Users\trilu\Downloads\TI_ARM_Tiva_Projects_EECS_690_Sp
    1447                            .dwattr $C$DW$T$27, DW_AT_decl_line(0xbf)
    1448                            .dwattr $C$DW$T$27, DW_AT_decl_column(0x1b)
    1449                    $C$DW$T$28      .dwtag  DW_TAG_pointer_type
    1450                            .dwattr $C$DW$T$28, DW_AT_type(*$C$DW$T$27)
    1451                            .dwattr $C$DW$T$28, DW_AT_address_class(0x20)
    1452                    $C$DW$T$32      .dwtag  DW_TAG_pointer_type
    1453                            .dwattr $C$DW$T$32, DW_AT_type(*$C$DW$T$33)
    1454                            .dwattr $C$DW$T$32, DW_AT_address_class(0x20)
    1455                    
    1456                    $C$DW$T$34      .dwtag  DW_TAG_structure_type
    1457                            .dwattr $C$DW$T$34, DW_AT_name("xMEMORY_REGION")
    1458                            .dwattr $C$DW$T$34, DW_AT_byte_size(0x0c)
    1459                    $C$DW$91        .dwtag  DW_TAG_member
    1460                            .dwattr $C$DW$91, DW_AT_type(*$C$DW$T$3)
    1461                            .dwattr $C$DW$91, DW_AT_name("pvBaseAddress")
    1462                            .dwattr $C$DW$91, DW_AT_TI_symbol_name("pvBaseAddress")
    1463                            .dwattr $C$DW$91, DW_AT_data_member_location[DW_OP_plus_uconst 0x0]
    1464                            .dwattr $C$DW$91, DW_AT_accessibility(DW_ACCESS_public)
    1465                            .dwattr $C$DW$91, DW_AT_decl_file("C:/Users/trilu/Downloads/TI_ARM_Tiva_Projects_EECS_690_Sp16
    1466                            .dwattr $C$DW$91, DW_AT_decl_line(0x91)
    1467                            .dwattr $C$DW$91, DW_AT_decl_column(0x08)
    1468                    $C$DW$92        .dwtag  DW_TAG_member
    1469                            .dwattr $C$DW$92, DW_AT_type(*$C$DW$T$23)
    1470                            .dwattr $C$DW$92, DW_AT_name("ulLengthInBytes")
    1471                            .dwattr $C$DW$92, DW_AT_TI_symbol_name("ulLengthInBytes")
    1472                            .dwattr $C$DW$92, DW_AT_data_member_location[DW_OP_plus_uconst 0x4]
    1473                            .dwattr $C$DW$92, DW_AT_accessibility(DW_ACCESS_public)
    1474                            .dwattr $C$DW$92, DW_AT_decl_file("C:/Users/trilu/Downloads/TI_ARM_Tiva_Projects_EECS_690_Sp16
    1475                            .dwattr $C$DW$92, DW_AT_decl_line(0x92)
    1476                            .dwattr $C$DW$92, DW_AT_decl_column(0x0b)
    1477                    $C$DW$93        .dwtag  DW_TAG_member
    1478                            .dwattr $C$DW$93, DW_AT_type(*$C$DW$T$23)
    1479                            .dwattr $C$DW$93, DW_AT_name("ulParameters")
    1480                            .dwattr $C$DW$93, DW_AT_TI_symbol_name("ulParameters")
    1481                            .dwattr $C$DW$93, DW_AT_data_member_location[DW_OP_plus_uconst 0x8]
    1482                            .dwattr $C$DW$93, DW_AT_accessibility(DW_ACCESS_public)
    1483                            .dwattr $C$DW$93, DW_AT_decl_file("C:/Users/trilu/Downloads/TI_ARM_Tiva_Projects_EECS_690_Sp16
    1484                            .dwattr $C$DW$93, DW_AT_decl_line(0x93)
    1485                            .dwattr $C$DW$93, DW_AT_decl_column(0x0b)
TI ARM Assembler PC v5.2.5 Tue May 03 06:24:58 2016

Tools Copyright (c) 1996-2015 Texas Instruments Incorporated
Processor_Initialization_TM4C1294.asm                                PAGE   28

    1486                            .dwendtag $C$DW$T$34
    1487                    
    1488                            .dwattr $C$DW$T$34, DW_AT_decl_file("C:/Users/trilu/Downloads/TI_ARM_Tiva_Projects_EECS_690_Sp
    1489                            .dwattr $C$DW$T$34, DW_AT_decl_line(0x8f)
    1490                            .dwattr $C$DW$T$34, DW_AT_decl_column(0x10)
    1491                    $C$DW$T$46      .dwtag  DW_TAG_typedef, DW_AT_name("MemoryRegion_t")
    1492                            .dwattr $C$DW$T$46, DW_AT_type(*$C$DW$T$34)
    1493                            .dwattr $C$DW$T$46, DW_AT_language(DW_LANG_C)
    1494                            .dwattr $C$DW$T$46, DW_AT_decl_file("C:/Users/trilu/Downloads/TI_ARM_Tiva_Projects_EECS_690_Sp
    1495                            .dwattr $C$DW$T$46, DW_AT_decl_line(0x94)
    1496                            .dwattr $C$DW$T$46, DW_AT_decl_column(0x03)
    1497                    
    1498                    $C$DW$T$47      .dwtag  DW_TAG_array_type
    1499                            .dwattr $C$DW$T$47, DW_AT_type(*$C$DW$T$46)
    1500                            .dwattr $C$DW$T$47, DW_AT_language(DW_LANG_C)
    1501                            .dwattr $C$DW$T$47, DW_AT_byte_size(0x0c)
    1502                    $C$DW$94        .dwtag  DW_TAG_subrange_type
    1503                            .dwattr $C$DW$94, DW_AT_upper_bound(0x00)
    1504                            .dwendtag $C$DW$T$47
    1505                    
    1506                    
    1507                    $C$DW$T$35      .dwtag  DW_TAG_structure_type
    1508                            .dwattr $C$DW$T$35, DW_AT_name("xMINI_LIST_ITEM")
    1509                            .dwattr $C$DW$T$35, DW_AT_byte_size(0x0c)
    1510                    $C$DW$95        .dwtag  DW_TAG_member
    1511                            .dwattr $C$DW$95, DW_AT_type(*$C$DW$T$31)
    1512                            .dwattr $C$DW$95, DW_AT_name("xItemValue")
    1513                            .dwattr $C$DW$95, DW_AT_TI_symbol_name("xItemValue")
    1514                            .dwattr $C$DW$95, DW_AT_data_member_location[DW_OP_plus_uconst 0x0]
    1515                            .dwattr $C$DW$95, DW_AT_accessibility(DW_ACCESS_public)
    1516                            .dwattr $C$DW$95, DW_AT_decl_file("C:\Users\trilu\Downloads\TI_ARM_Tiva_Projects_EECS_690_Sp16
    1517                            .dwattr $C$DW$95, DW_AT_decl_line(0xc4)
    1518                            .dwattr $C$DW$95, DW_AT_decl_column(0x21)
    1519                    $C$DW$96        .dwtag  DW_TAG_member
    1520                            .dwattr $C$DW$96, DW_AT_type(*$C$DW$T$32)
    1521                            .dwattr $C$DW$96, DW_AT_name("pxNext")
    1522                            .dwattr $C$DW$96, DW_AT_TI_symbol_name("pxNext")
    1523                            .dwattr $C$DW$96, DW_AT_data_member_location[DW_OP_plus_uconst 0x4]
    1524                            .dwattr $C$DW$96, DW_AT_accessibility(DW_ACCESS_public)
    1525                            .dwattr $C$DW$96, DW_AT_decl_file("C:\Users\trilu\Downloads\TI_ARM_Tiva_Projects_EECS_690_Sp16
    1526                            .dwattr $C$DW$96, DW_AT_decl_line(0xc5)
    1527                            .dwattr $C$DW$96, DW_AT_decl_column(0x2a)
    1528                    $C$DW$97        .dwtag  DW_TAG_member
    1529                            .dwattr $C$DW$97, DW_AT_type(*$C$DW$T$32)
    1530                            .dwattr $C$DW$97, DW_AT_name("pxPrevious")
    1531                            .dwattr $C$DW$97, DW_AT_TI_symbol_name("pxPrevious")
    1532                            .dwattr $C$DW$97, DW_AT_data_member_location[DW_OP_plus_uconst 0x8]
    1533                            .dwattr $C$DW$97, DW_AT_accessibility(DW_ACCESS_public)
    1534                            .dwattr $C$DW$97, DW_AT_decl_file("C:\Users\trilu\Downloads\TI_ARM_Tiva_Projects_EECS_690_Sp16
    1535                            .dwattr $C$DW$97, DW_AT_decl_line(0xc6)
    1536                            .dwattr $C$DW$97, DW_AT_decl_column(0x2a)
    1537                            .dwendtag $C$DW$T$35
    1538                    
    1539                            .dwattr $C$DW$T$35, DW_AT_decl_file("C:\Users\trilu\Downloads\TI_ARM_Tiva_Projects_EECS_690_Sp
    1540                            .dwattr $C$DW$T$35, DW_AT_decl_line(0xc1)
TI ARM Assembler PC v5.2.5 Tue May 03 06:24:58 2016

Tools Copyright (c) 1996-2015 Texas Instruments Incorporated
Processor_Initialization_TM4C1294.asm                                PAGE   29

    1541                            .dwattr $C$DW$T$35, DW_AT_decl_column(0x08)
    1542                    $C$DW$T$29      .dwtag  DW_TAG_typedef, DW_AT_name("MiniListItem_t")
    1543                            .dwattr $C$DW$T$29, DW_AT_type(*$C$DW$T$35)
    1544                            .dwattr $C$DW$T$29, DW_AT_language(DW_LANG_C)
    1545                            .dwattr $C$DW$T$29, DW_AT_decl_file("C:\Users\trilu\Downloads\TI_ARM_Tiva_Projects_EECS_690_Sp
    1546                            .dwattr $C$DW$T$29, DW_AT_decl_line(0xc8)
    1547                            .dwattr $C$DW$T$29, DW_AT_decl_column(0x20)
    1548                    
    1549                    $C$DW$T$48      .dwtag  DW_TAG_structure_type
    1550                            .dwattr $C$DW$T$48, DW_AT_name("xTASK_PARAMETERS")
    1551                            .dwattr $C$DW$T$48, DW_AT_byte_size(0x24)
    1552                    $C$DW$98        .dwtag  DW_TAG_member
    1553                            .dwattr $C$DW$98, DW_AT_type(*$C$DW$T$38)
    1554                            .dwattr $C$DW$98, DW_AT_name("pvTaskCode")
    1555                            .dwattr $C$DW$98, DW_AT_TI_symbol_name("pvTaskCode")
    1556                            .dwattr $C$DW$98, DW_AT_data_member_location[DW_OP_plus_uconst 0x0]
    1557                            .dwattr $C$DW$98, DW_AT_accessibility(DW_ACCESS_public)
    1558                            .dwattr $C$DW$98, DW_AT_decl_file("C:/Users/trilu/Downloads/TI_ARM_Tiva_Projects_EECS_690_Sp16
    1559                            .dwattr $C$DW$98, DW_AT_decl_line(0x9b)
    1560                            .dwattr $C$DW$98, DW_AT_decl_column(0x11)
    1561                    $C$DW$99        .dwtag  DW_TAG_member
    1562                            .dwattr $C$DW$99, DW_AT_type(*$C$DW$T$42)
    1563                            .dwattr $C$DW$99, DW_AT_name("pcName")
    1564                            .dwattr $C$DW$99, DW_AT_TI_symbol_name("pcName")
    1565                            .dwattr $C$DW$99, DW_AT_data_member_location[DW_OP_plus_uconst 0x4]
    1566                            .dwattr $C$DW$99, DW_AT_accessibility(DW_ACCESS_public)
    1567                            .dwattr $C$DW$99, DW_AT_decl_file("C:/Users/trilu/Downloads/TI_ARM_Tiva_Projects_EECS_690_Sp16
    1568                            .dwattr $C$DW$99, DW_AT_decl_line(0x9c)
    1569                            .dwattr $C$DW$99, DW_AT_decl_column(0x15)
    1570                    $C$DW$100       .dwtag  DW_TAG_member
    1571                            .dwattr $C$DW$100, DW_AT_type(*$C$DW$T$43)
    1572                            .dwattr $C$DW$100, DW_AT_name("usStackDepth")
    1573                            .dwattr $C$DW$100, DW_AT_TI_symbol_name("usStackDepth")
    1574                            .dwattr $C$DW$100, DW_AT_data_member_location[DW_OP_plus_uconst 0x8]
    1575                            .dwattr $C$DW$100, DW_AT_accessibility(DW_ACCESS_public)
    1576                            .dwattr $C$DW$100, DW_AT_decl_file("C:/Users/trilu/Downloads/TI_ARM_Tiva_Projects_EECS_690_Sp1
    1577                            .dwattr $C$DW$100, DW_AT_decl_line(0x9d)
    1578                            .dwattr $C$DW$100, DW_AT_decl_column(0x0b)
    1579                    $C$DW$101       .dwtag  DW_TAG_member
    1580                            .dwattr $C$DW$101, DW_AT_type(*$C$DW$T$3)
    1581                            .dwattr $C$DW$101, DW_AT_name("pvParameters")
    1582                            .dwattr $C$DW$101, DW_AT_TI_symbol_name("pvParameters")
    1583                            .dwattr $C$DW$101, DW_AT_data_member_location[DW_OP_plus_uconst 0xc]
    1584                            .dwattr $C$DW$101, DW_AT_accessibility(DW_ACCESS_public)
    1585                            .dwattr $C$DW$101, DW_AT_decl_file("C:/Users/trilu/Downloads/TI_ARM_Tiva_Projects_EECS_690_Sp1
    1586                            .dwattr $C$DW$101, DW_AT_decl_line(0x9e)
    1587                            .dwattr $C$DW$101, DW_AT_decl_column(0x08)
    1588                    $C$DW$102       .dwtag  DW_TAG_member
    1589                            .dwattr $C$DW$102, DW_AT_type(*$C$DW$T$26)
    1590                            .dwattr $C$DW$102, DW_AT_name("uxPriority")
    1591                            .dwattr $C$DW$102, DW_AT_TI_symbol_name("uxPriority")
    1592                            .dwattr $C$DW$102, DW_AT_data_member_location[DW_OP_plus_uconst 0x10]
    1593                            .dwattr $C$DW$102, DW_AT_accessibility(DW_ACCESS_public)
    1594                            .dwattr $C$DW$102, DW_AT_decl_file("C:/Users/trilu/Downloads/TI_ARM_Tiva_Projects_EECS_690_Sp1
    1595                            .dwattr $C$DW$102, DW_AT_decl_line(0x9f)
TI ARM Assembler PC v5.2.5 Tue May 03 06:24:58 2016

Tools Copyright (c) 1996-2015 Texas Instruments Incorporated
Processor_Initialization_TM4C1294.asm                                PAGE   30

    1596                            .dwattr $C$DW$102, DW_AT_decl_column(0x0e)
    1597                    $C$DW$103       .dwtag  DW_TAG_member
    1598                            .dwattr $C$DW$103, DW_AT_type(*$C$DW$T$45)
    1599                            .dwattr $C$DW$103, DW_AT_name("puxStackBuffer")
    1600                            .dwattr $C$DW$103, DW_AT_TI_symbol_name("puxStackBuffer")
    1601                            .dwattr $C$DW$103, DW_AT_data_member_location[DW_OP_plus_uconst 0x14]
    1602                            .dwattr $C$DW$103, DW_AT_accessibility(DW_ACCESS_public)
    1603                            .dwattr $C$DW$103, DW_AT_decl_file("C:/Users/trilu/Downloads/TI_ARM_Tiva_Projects_EECS_690_Sp1
    1604                            .dwattr $C$DW$103, DW_AT_decl_line(0xa0)
    1605                            .dwattr $C$DW$103, DW_AT_decl_column(0x0f)
    1606                    $C$DW$104       .dwtag  DW_TAG_member
    1607                            .dwattr $C$DW$104, DW_AT_type(*$C$DW$T$47)
    1608                            .dwattr $C$DW$104, DW_AT_name("xRegions")
    1609                            .dwattr $C$DW$104, DW_AT_TI_symbol_name("xRegions")
    1610                            .dwattr $C$DW$104, DW_AT_data_member_location[DW_OP_plus_uconst 0x18]
    1611                            .dwattr $C$DW$104, DW_AT_accessibility(DW_ACCESS_public)
    1612                            .dwattr $C$DW$104, DW_AT_decl_file("C:/Users/trilu/Downloads/TI_ARM_Tiva_Projects_EECS_690_Sp1
    1613                            .dwattr $C$DW$104, DW_AT_decl_line(0xa1)
    1614                            .dwattr $C$DW$104, DW_AT_decl_column(0x11)
    1615                            .dwendtag $C$DW$T$48
    1616                    
    1617                            .dwattr $C$DW$T$48, DW_AT_decl_file("C:/Users/trilu/Downloads/TI_ARM_Tiva_Projects_EECS_690_Sp
    1618                            .dwattr $C$DW$T$48, DW_AT_decl_line(0x99)
    1619                            .dwattr $C$DW$T$48, DW_AT_decl_column(0x10)
    1620                    $C$DW$T$134     .dwtag  DW_TAG_typedef, DW_AT_name("TaskParameters_t")
    1621                            .dwattr $C$DW$T$134, DW_AT_type(*$C$DW$T$48)
    1622                            .dwattr $C$DW$T$134, DW_AT_language(DW_LANG_C)
    1623                            .dwattr $C$DW$T$134, DW_AT_decl_file("C:/Users/trilu/Downloads/TI_ARM_Tiva_Projects_EECS_690_S
    1624                            .dwattr $C$DW$T$134, DW_AT_decl_line(0xa2)
    1625                            .dwattr $C$DW$T$134, DW_AT_decl_column(0x03)
    1626                    
    1627                    $C$DW$T$52      .dwtag  DW_TAG_structure_type
    1628                            .dwattr $C$DW$T$52, DW_AT_name("xTASK_STATUS")
    1629                            .dwattr $C$DW$T$52, DW_AT_byte_size(0x20)
    1630                    $C$DW$105       .dwtag  DW_TAG_member
    1631                            .dwattr $C$DW$105, DW_AT_type(*$C$DW$T$49)
    1632                            .dwattr $C$DW$105, DW_AT_name("xHandle")
    1633                            .dwattr $C$DW$105, DW_AT_TI_symbol_name("xHandle")
    1634                            .dwattr $C$DW$105, DW_AT_data_member_location[DW_OP_plus_uconst 0x0]
    1635                            .dwattr $C$DW$105, DW_AT_accessibility(DW_ACCESS_public)
    1636                            .dwattr $C$DW$105, DW_AT_decl_file("C:/Users/trilu/Downloads/TI_ARM_Tiva_Projects_EECS_690_Sp1
    1637                            .dwattr $C$DW$105, DW_AT_decl_line(0xa8)
    1638                            .dwattr $C$DW$105, DW_AT_decl_column(0x0f)
    1639                    $C$DW$106       .dwtag  DW_TAG_member
    1640                            .dwattr $C$DW$106, DW_AT_type(*$C$DW$T$41)
    1641                            .dwattr $C$DW$106, DW_AT_name("pcTaskName")
    1642                            .dwattr $C$DW$106, DW_AT_TI_symbol_name("pcTaskName")
    1643                            .dwattr $C$DW$106, DW_AT_data_member_location[DW_OP_plus_uconst 0x4]
    1644                            .dwattr $C$DW$106, DW_AT_accessibility(DW_ACCESS_public)
    1645                            .dwattr $C$DW$106, DW_AT_decl_file("C:/Users/trilu/Downloads/TI_ARM_Tiva_Projects_EECS_690_Sp1
    1646                            .dwattr $C$DW$106, DW_AT_decl_line(0xa9)
    1647                            .dwattr $C$DW$106, DW_AT_decl_column(0x0e)
    1648                    $C$DW$107       .dwtag  DW_TAG_member
    1649                            .dwattr $C$DW$107, DW_AT_type(*$C$DW$T$26)
    1650                            .dwattr $C$DW$107, DW_AT_name("xTaskNumber")
TI ARM Assembler PC v5.2.5 Tue May 03 06:24:58 2016

Tools Copyright (c) 1996-2015 Texas Instruments Incorporated
Processor_Initialization_TM4C1294.asm                                PAGE   31

    1651                            .dwattr $C$DW$107, DW_AT_TI_symbol_name("xTaskNumber")
    1652                            .dwattr $C$DW$107, DW_AT_data_member_location[DW_OP_plus_uconst 0x8]
    1653                            .dwattr $C$DW$107, DW_AT_accessibility(DW_ACCESS_public)
    1654                            .dwattr $C$DW$107, DW_AT_decl_file("C:/Users/trilu/Downloads/TI_ARM_Tiva_Projects_EECS_690_Sp1
    1655                            .dwattr $C$DW$107, DW_AT_decl_line(0xaa)
    1656                            .dwattr $C$DW$107, DW_AT_decl_column(0x0e)
    1657                    $C$DW$108       .dwtag  DW_TAG_member
    1658                            .dwattr $C$DW$108, DW_AT_type(*$C$DW$T$51)
    1659                            .dwattr $C$DW$108, DW_AT_name("eCurrentState")
    1660                            .dwattr $C$DW$108, DW_AT_TI_symbol_name("eCurrentState")
    1661                            .dwattr $C$DW$108, DW_AT_data_member_location[DW_OP_plus_uconst 0xc]
    1662                            .dwattr $C$DW$108, DW_AT_accessibility(DW_ACCESS_public)
    1663                            .dwattr $C$DW$108, DW_AT_decl_file("C:/Users/trilu/Downloads/TI_ARM_Tiva_Projects_EECS_690_Sp1
    1664                            .dwattr $C$DW$108, DW_AT_decl_line(0xab)
    1665                            .dwattr $C$DW$108, DW_AT_decl_column(0x0d)
    1666                    $C$DW$109       .dwtag  DW_TAG_member
    1667                            .dwattr $C$DW$109, DW_AT_type(*$C$DW$T$26)
    1668                            .dwattr $C$DW$109, DW_AT_name("uxCurrentPriority")
    1669                            .dwattr $C$DW$109, DW_AT_TI_symbol_name("uxCurrentPriority")
    1670                            .dwattr $C$DW$109, DW_AT_data_member_location[DW_OP_plus_uconst 0x10]
    1671                            .dwattr $C$DW$109, DW_AT_accessibility(DW_ACCESS_public)
    1672                            .dwattr $C$DW$109, DW_AT_decl_file("C:/Users/trilu/Downloads/TI_ARM_Tiva_Projects_EECS_690_Sp1
    1673                            .dwattr $C$DW$109, DW_AT_decl_line(0xac)
    1674                            .dwattr $C$DW$109, DW_AT_decl_column(0x0e)
    1675                    $C$DW$110       .dwtag  DW_TAG_member
    1676                            .dwattr $C$DW$110, DW_AT_type(*$C$DW$T$26)
    1677                            .dwattr $C$DW$110, DW_AT_name("uxBasePriority")
    1678                            .dwattr $C$DW$110, DW_AT_TI_symbol_name("uxBasePriority")
    1679                            .dwattr $C$DW$110, DW_AT_data_member_location[DW_OP_plus_uconst 0x14]
    1680                            .dwattr $C$DW$110, DW_AT_accessibility(DW_ACCESS_public)
    1681                            .dwattr $C$DW$110, DW_AT_decl_file("C:/Users/trilu/Downloads/TI_ARM_Tiva_Projects_EECS_690_Sp1
    1682                            .dwattr $C$DW$110, DW_AT_decl_line(0xad)
    1683                            .dwattr $C$DW$110, DW_AT_decl_column(0x0e)
    1684                    $C$DW$111       .dwtag  DW_TAG_member
    1685                            .dwattr $C$DW$111, DW_AT_type(*$C$DW$T$23)
    1686                            .dwattr $C$DW$111, DW_AT_name("ulRunTimeCounter")
    1687                            .dwattr $C$DW$111, DW_AT_TI_symbol_name("ulRunTimeCounter")
    1688                            .dwattr $C$DW$111, DW_AT_data_member_location[DW_OP_plus_uconst 0x18]
    1689                            .dwattr $C$DW$111, DW_AT_accessibility(DW_ACCESS_public)
    1690                            .dwattr $C$DW$111, DW_AT_decl_file("C:/Users/trilu/Downloads/TI_ARM_Tiva_Projects_EECS_690_Sp1
    1691                            .dwattr $C$DW$111, DW_AT_decl_line(0xae)
    1692                            .dwattr $C$DW$111, DW_AT_decl_column(0x0b)
    1693                    $C$DW$112       .dwtag  DW_TAG_member
    1694                            .dwattr $C$DW$112, DW_AT_type(*$C$DW$T$43)
    1695                            .dwattr $C$DW$112, DW_AT_name("usStackHighWaterMark")
    1696                            .dwattr $C$DW$112, DW_AT_TI_symbol_name("usStackHighWaterMark")
    1697                            .dwattr $C$DW$112, DW_AT_data_member_location[DW_OP_plus_uconst 0x1c]
    1698                            .dwattr $C$DW$112, DW_AT_accessibility(DW_ACCESS_public)
    1699                            .dwattr $C$DW$112, DW_AT_decl_file("C:/Users/trilu/Downloads/TI_ARM_Tiva_Projects_EECS_690_Sp1
    1700                            .dwattr $C$DW$112, DW_AT_decl_line(0xaf)
    1701                            .dwattr $C$DW$112, DW_AT_decl_column(0x0b)
    1702                            .dwendtag $C$DW$T$52
    1703                    
    1704                            .dwattr $C$DW$T$52, DW_AT_decl_file("C:/Users/trilu/Downloads/TI_ARM_Tiva_Projects_EECS_690_Sp
    1705                            .dwattr $C$DW$T$52, DW_AT_decl_line(0xa6)
TI ARM Assembler PC v5.2.5 Tue May 03 06:24:58 2016

Tools Copyright (c) 1996-2015 Texas Instruments Incorporated
Processor_Initialization_TM4C1294.asm                                PAGE   32

    1706                            .dwattr $C$DW$T$52, DW_AT_decl_column(0x10)
    1707                    $C$DW$T$135     .dwtag  DW_TAG_typedef, DW_AT_name("TaskStatus_t")
    1708                            .dwattr $C$DW$T$135, DW_AT_type(*$C$DW$T$52)
    1709                            .dwattr $C$DW$T$135, DW_AT_language(DW_LANG_C)
    1710                            .dwattr $C$DW$T$135, DW_AT_decl_file("C:/Users/trilu/Downloads/TI_ARM_Tiva_Projects_EECS_690_S
    1711                            .dwattr $C$DW$T$135, DW_AT_decl_line(0xb0)
    1712                            .dwattr $C$DW$T$135, DW_AT_decl_column(0x03)
    1713                    
    1714                    $C$DW$T$55      .dwtag  DW_TAG_structure_type
    1715                            .dwattr $C$DW$T$55, DW_AT_name("xTIME_OUT")
    1716                            .dwattr $C$DW$T$55, DW_AT_byte_size(0x08)
    1717                    $C$DW$113       .dwtag  DW_TAG_member
    1718                            .dwattr $C$DW$113, DW_AT_type(*$C$DW$T$54)
    1719                            .dwattr $C$DW$113, DW_AT_name("xOverflowCount")
    1720                            .dwattr $C$DW$113, DW_AT_TI_symbol_name("xOverflowCount")
    1721                            .dwattr $C$DW$113, DW_AT_data_member_location[DW_OP_plus_uconst 0x0]
    1722                            .dwattr $C$DW$113, DW_AT_accessibility(DW_ACCESS_public)
    1723                            .dwattr $C$DW$113, DW_AT_decl_file("C:/Users/trilu/Downloads/TI_ARM_Tiva_Projects_EECS_690_Sp1
    1724                            .dwattr $C$DW$113, DW_AT_decl_line(0x88)
    1725                            .dwattr $C$DW$113, DW_AT_decl_column(0x0d)
    1726                    $C$DW$114       .dwtag  DW_TAG_member
    1727                            .dwattr $C$DW$114, DW_AT_type(*$C$DW$T$31)
    1728                            .dwattr $C$DW$114, DW_AT_name("xTimeOnEntering")
    1729                            .dwattr $C$DW$114, DW_AT_TI_symbol_name("xTimeOnEntering")
    1730                            .dwattr $C$DW$114, DW_AT_data_member_location[DW_OP_plus_uconst 0x4]
    1731                            .dwattr $C$DW$114, DW_AT_accessibility(DW_ACCESS_public)
    1732                            .dwattr $C$DW$114, DW_AT_decl_file("C:/Users/trilu/Downloads/TI_ARM_Tiva_Projects_EECS_690_Sp1
    1733                            .dwattr $C$DW$114, DW_AT_decl_line(0x89)
    1734                            .dwattr $C$DW$114, DW_AT_decl_column(0x0d)
    1735                            .dwendtag $C$DW$T$55
    1736                    
    1737                            .dwattr $C$DW$T$55, DW_AT_decl_file("C:/Users/trilu/Downloads/TI_ARM_Tiva_Projects_EECS_690_Sp
    1738                            .dwattr $C$DW$T$55, DW_AT_decl_line(0x86)
    1739                            .dwattr $C$DW$T$55, DW_AT_decl_column(0x10)
    1740                    $C$DW$T$136     .dwtag  DW_TAG_typedef, DW_AT_name("TimeOut_t")
    1741                            .dwattr $C$DW$T$136, DW_AT_type(*$C$DW$T$55)
    1742                            .dwattr $C$DW$T$136, DW_AT_language(DW_LANG_C)
    1743                            .dwattr $C$DW$T$136, DW_AT_decl_file("C:/Users/trilu/Downloads/TI_ARM_Tiva_Projects_EECS_690_S
    1744                            .dwattr $C$DW$T$136, DW_AT_decl_line(0x8a)
    1745                            .dwattr $C$DW$T$136, DW_AT_decl_column(0x03)
    1746                            .dwattr $C$DW$CU, DW_AT_language(DW_LANG_C)
    1747                    
    1748                    ;***************************************************************
    1749                    ;* DWARF CIE ENTRIES                                           *
    1750                    ;***************************************************************
    1751                    
    1752                    $C$DW$CIE       .dwcie 14
    1753                            .dwcfi  cfa_register, 13
    1754                            .dwcfi  cfa_offset, 0
    1755                            .dwcfi  undefined, 0
    1756                            .dwcfi  undefined, 1
    1757                            .dwcfi  undefined, 2
    1758                            .dwcfi  undefined, 3
    1759                            .dwcfi  same_value, 4
    1760                            .dwcfi  same_value, 5
TI ARM Assembler PC v5.2.5 Tue May 03 06:24:58 2016

Tools Copyright (c) 1996-2015 Texas Instruments Incorporated
Processor_Initialization_TM4C1294.asm                                PAGE   33

    1761                            .dwcfi  same_value, 6
    1762                            .dwcfi  same_value, 7
    1763                            .dwcfi  same_value, 8
    1764                            .dwcfi  same_value, 9
    1765                            .dwcfi  same_value, 10
    1766                            .dwcfi  same_value, 11
    1767                            .dwcfi  undefined, 12
    1768                            .dwcfi  undefined, 13
    1769                            .dwcfi  undefined, 14
    1770                            .dwcfi  undefined, 14
    1771                            .dwcfi  undefined, 7
    1772                            .dwcfi  undefined, 64
    1773                            .dwcfi  undefined, 65
    1774                            .dwcfi  undefined, 66
    1775                            .dwcfi  undefined, 67
    1776                            .dwcfi  undefined, 68
    1777                            .dwcfi  undefined, 69
    1778                            .dwcfi  undefined, 70
    1779                            .dwcfi  undefined, 71
    1780                            .dwcfi  undefined, 72
    1781                            .dwcfi  undefined, 73
    1782                            .dwcfi  undefined, 74
    1783                            .dwcfi  undefined, 75
    1784                            .dwcfi  undefined, 76
    1785                            .dwcfi  undefined, 77
    1786                            .dwcfi  undefined, 78
    1787                            .dwcfi  undefined, 79
    1788                            .dwcfi  same_value, 80
    1789                            .dwcfi  same_value, 81
    1790                            .dwcfi  same_value, 82
    1791                            .dwcfi  same_value, 83
    1792                            .dwcfi  same_value, 84
    1793                            .dwcfi  same_value, 85
    1794                            .dwcfi  same_value, 86
    1795                            .dwcfi  same_value, 87
    1796                            .dwcfi  same_value, 88
    1797                            .dwcfi  same_value, 89
    1798                            .dwcfi  same_value, 90
    1799                            .dwcfi  same_value, 91
    1800                            .dwcfi  same_value, 92
    1801                            .dwcfi  same_value, 93
    1802                            .dwcfi  same_value, 94
    1803                            .dwcfi  same_value, 95
    1804                            .dwendentry
    1805                            .dwendtag $C$DW$CU
    1806                    

--------------------------
Thumb2 Statistics
--------------------------
Number of Thumb2 ins converted to Thumb = 0 (0%)
Number of Thumb ins in input = 66 (76%)
Number of Thumb2 ins encoded as Thumb2 = 20 (100%)
Number of Thumb2 ins converted to 2 OPND Thumb = 0


No Assembly Errors, No Assembly Warnings
